; generated by ARM C/C++ Compiler, 5.03 [Build 76]
; commandline ArmCC [--list --split_sections --debug -c --asm --interleave -o.\obj\aes.o --asm_dir=.\lst\ --list_dir=.\lst\ --depend=.\obj\aes.d --cpu=Cortex-M3 --apcs=interwork -O0 -I..\user -I..\dev -I..\lib\inc -I..\core_cm3 -ID:\Keil\ARM\RV31\INC -ID:\Keil\ARM\CMSIS\Include -ID:\Keil\ARM\Inc\ST\STM32F10x -D__MICROLIB -DSTM32F10X_MD -DUSE_STDPERIPH_DRIVER --omf_browse=.\obj\aes.crf ..\user\aes.c]
                          THUMB

                          AREA ||i.AES_cbc_encrypt||, CODE, READONLY, ALIGN=1

                  AES_cbc_encrypt PROC
;;;1231   
;;;1232   void AES_cbc_encrypt(const unsigned char *in, unsigned char *out,
000000  e92d5fff          PUSH     {r0-r12,lr}
;;;1233                        const unsigned long length, const AES_KEY *key,
;;;1234                        unsigned char *ivec, const int enc)
;;;1235   {
000004  4607              MOV      r7,r0
000006  460e              MOV      r6,r1
000008  4691              MOV      r9,r2
00000a  469a              MOV      r10,r3
00000c  e9dd8b0e          LDRD     r8,r11,[sp,#0x38]
;;;1236   
;;;1237           unsigned long n;
;;;1238           unsigned long len = length;
000010  464d              MOV      r5,r9
;;;1239           unsigned char tmp[AES_BLOCK_SIZE];
;;;1240   
;;;1241           //assert(in && out && key && ivec);
;;;1242   
;;;1243           if (enc) 
000012  f1bb0f00          CMP      r11,#0
000016  d040              BEQ      |L1.154|
;;;1244   		{
;;;1245                   while (len >= AES_BLOCK_SIZE) 
000018  e017              B        |L1.74|
                  |L1.26|
;;;1246   				{
;;;1247                           for(n=0; n < AES_BLOCK_SIZE; ++n)
00001a  2400              MOVS     r4,#0
00001c  e006              B        |L1.44|
                  |L1.30|
;;;1248                                   tmp[n] = in[n] ^ ivec[n];
00001e  5d38              LDRB     r0,[r7,r4]
000020  f8181004          LDRB     r1,[r8,r4]
000024  4048              EORS     r0,r0,r1
000026  f80d0004          STRB     r0,[sp,r4]
00002a  1c64              ADDS     r4,r4,#1              ;1247
                  |L1.44|
00002c  2c10              CMP      r4,#0x10              ;1247
00002e  d3f6              BCC      |L1.30|
;;;1249                           AES_encrypt(tmp, out, key);
000030  4652              MOV      r2,r10
000032  4631              MOV      r1,r6
000034  4668              MOV      r0,sp
000036  f7fffffe          BL       AES_encrypt
;;;1250                           memcpy(ivec, out, AES_BLOCK_SIZE);
00003a  2210              MOVS     r2,#0x10
00003c  4631              MOV      r1,r6
00003e  4640              MOV      r0,r8
000040  f7fffffe          BL       __aeabi_memcpy
;;;1251                           len -= AES_BLOCK_SIZE;
000044  3d10              SUBS     r5,r5,#0x10
;;;1252                           in += AES_BLOCK_SIZE;
000046  3710              ADDS     r7,r7,#0x10
;;;1253                           out += AES_BLOCK_SIZE;
000048  3610              ADDS     r6,r6,#0x10
                  |L1.74|
00004a  2d10              CMP      r5,#0x10              ;1245
00004c  d2e5              BCS      |L1.26|
;;;1254                   }
;;;1255                   if (len) 
00004e  2d00              CMP      r5,#0
000050  d05d              BEQ      |L1.270|
;;;1256   				{
;;;1257                           for(n=0; n < len; ++n)
000052  2400              MOVS     r4,#0
000054  e006              B        |L1.100|
                  |L1.86|
;;;1258                                   tmp[n] = in[n] ^ ivec[n];
000056  5d38              LDRB     r0,[r7,r4]
000058  f8181004          LDRB     r1,[r8,r4]
00005c  4048              EORS     r0,r0,r1
00005e  f80d0004          STRB     r0,[sp,r4]
000062  1c64              ADDS     r4,r4,#1              ;1257
                  |L1.100|
000064  42ac              CMP      r4,r5                 ;1257
000066  d3f6              BCC      |L1.86|
;;;1259                           for(n=len; n < AES_BLOCK_SIZE; ++n)
000068  462c              MOV      r4,r5
00006a  e004              B        |L1.118|
                  |L1.108|
;;;1260                                   tmp[n] = ivec[n];
00006c  f8180004          LDRB     r0,[r8,r4]
000070  f80d0004          STRB     r0,[sp,r4]
000074  1c64              ADDS     r4,r4,#1              ;1259
                  |L1.118|
000076  2c10              CMP      r4,#0x10              ;1259
000078  d3f8              BCC      |L1.108|
;;;1261                           AES_encrypt(tmp, tmp, key);
00007a  4652              MOV      r2,r10
00007c  4669              MOV      r1,sp
00007e  4668              MOV      r0,sp
000080  f7fffffe          BL       AES_encrypt
;;;1262                           memcpy(out, tmp, AES_BLOCK_SIZE);
000084  2210              MOVS     r2,#0x10
000086  4669              MOV      r1,sp
000088  4630              MOV      r0,r6
00008a  f7fffffe          BL       __aeabi_memcpy
;;;1263                           memcpy(ivec, tmp, AES_BLOCK_SIZE);
00008e  2210              MOVS     r2,#0x10
000090  4669              MOV      r1,sp
000092  4640              MOV      r0,r8
000094  f7fffffe          BL       __aeabi_memcpy
000098  e039              B        |L1.270|
                  |L1.154|
;;;1264                   }
;;;1265           }
;;;1266   		else 
;;;1267   		{
;;;1268                   while (len >= AES_BLOCK_SIZE) 
00009a  e01b              B        |L1.212|
                  |L1.156|
;;;1269   				{
;;;1270                           memcpy(tmp, in, AES_BLOCK_SIZE);
00009c  2210              MOVS     r2,#0x10
00009e  4639              MOV      r1,r7
0000a0  4668              MOV      r0,sp
0000a2  f7fffffe          BL       __aeabi_memcpy
;;;1271                           AES_decrypt(in, out, key);
0000a6  4652              MOV      r2,r10
0000a8  4631              MOV      r1,r6
0000aa  4638              MOV      r0,r7
0000ac  f7fffffe          BL       AES_decrypt
;;;1272                           for(n=0; n < AES_BLOCK_SIZE; ++n)
0000b0  2400              MOVS     r4,#0
0000b2  e005              B        |L1.192|
                  |L1.180|
;;;1273                                   out[n] ^= ivec[n];
0000b4  5d30              LDRB     r0,[r6,r4]
0000b6  f8181004          LDRB     r1,[r8,r4]
0000ba  4048              EORS     r0,r0,r1
0000bc  5530              STRB     r0,[r6,r4]
0000be  1c64              ADDS     r4,r4,#1              ;1272
                  |L1.192|
0000c0  2c10              CMP      r4,#0x10              ;1272
0000c2  d3f7              BCC      |L1.180|
;;;1274                           memcpy(ivec, tmp, AES_BLOCK_SIZE);
0000c4  2210              MOVS     r2,#0x10
0000c6  4669              MOV      r1,sp
0000c8  4640              MOV      r0,r8
0000ca  f7fffffe          BL       __aeabi_memcpy
;;;1275                           len -= AES_BLOCK_SIZE;
0000ce  3d10              SUBS     r5,r5,#0x10
;;;1276                           in += AES_BLOCK_SIZE;
0000d0  3710              ADDS     r7,r7,#0x10
;;;1277                           out += AES_BLOCK_SIZE;
0000d2  3610              ADDS     r6,r6,#0x10
                  |L1.212|
0000d4  2d10              CMP      r5,#0x10              ;1268
0000d6  d2e1              BCS      |L1.156|
;;;1278                   }
;;;1279                   if (len) 
0000d8  b1cd              CBZ      r5,|L1.270|
;;;1280   				{
;;;1281                           memcpy(tmp, in, AES_BLOCK_SIZE);
0000da  2210              MOVS     r2,#0x10
0000dc  4639              MOV      r1,r7
0000de  4668              MOV      r0,sp
0000e0  f7fffffe          BL       __aeabi_memcpy
;;;1282                           AES_decrypt(tmp, tmp, key);
0000e4  4652              MOV      r2,r10
0000e6  4669              MOV      r1,sp
0000e8  4668              MOV      r0,sp
0000ea  f7fffffe          BL       AES_decrypt
;;;1283                           for(n=0; n < len; ++n)
0000ee  2400              MOVS     r4,#0
0000f0  e006              B        |L1.256|
                  |L1.242|
;;;1284                                   out[n] = tmp[n] ^ ivec[n];
0000f2  f81d0004          LDRB     r0,[sp,r4]
0000f6  f8181004          LDRB     r1,[r8,r4]
0000fa  4048              EORS     r0,r0,r1
0000fc  5530              STRB     r0,[r6,r4]
0000fe  1c64              ADDS     r4,r4,#1              ;1283
                  |L1.256|
000100  42ac              CMP      r4,r5                 ;1283
000102  d3f6              BCC      |L1.242|
;;;1285                           memcpy(ivec, tmp, AES_BLOCK_SIZE);
000104  2210              MOVS     r2,#0x10
000106  4669              MOV      r1,sp
000108  4640              MOV      r0,r8
00010a  f7fffffe          BL       __aeabi_memcpy
                  |L1.270|
;;;1286                   }
;;;1287           }
;;;1288   }
00010e  e8bd9fff          POP      {r0-r12,pc}
                          ENDP


                          AREA ||i.AES_decrypt||, CODE, READONLY, ALIGN=2

                  AES_decrypt PROC
;;;1042    */
;;;1043   void AES_decrypt(const unsigned char *in, unsigned char *out,
000000  e92d4ff7          PUSH     {r0-r2,r4-r11,lr}
;;;1044                    const AES_KEY *key) {
000004  b081              SUB      sp,sp,#4
000006  4603              MOV      r3,r0
;;;1045   
;;;1046           const uint32_t *rk;
;;;1047           uint32_t s0, s1, s2, s3, t0, t1, t2, t3;
;;;1048   #ifndef FULL_UNROLL
;;;1049           int r;
;;;1050   #endif /* ?FULL_UNROLL */
;;;1051   
;;;1052           //assert(in && out && key);
;;;1053           rk = key->rd_key;
000008  9803              LDR      r0,[sp,#0xc]
;;;1054   
;;;1055           /*
;;;1056            * map byte array block to cipher state
;;;1057            * and add initial round key:
;;;1058            */
;;;1059       s0 = GETU32(in     ) ^ rk[0];
00000a  f893a000          LDRB     r10,[r3,#0]
00000e  ea4f6a0a          LSL      r10,r10,#24
000012  f893b001          LDRB     r11,[r3,#1]
000016  ea8a4a0b          EOR      r10,r10,r11,LSL #16
00001a  f893b002          LDRB     r11,[r3,#2]
00001e  ea8a2a0b          EOR      r10,r10,r11,LSL #8
000022  f893b003          LDRB     r11,[r3,#3]
000026  ea8a0a0b          EOR      r10,r10,r11
00002a  f8d0b000          LDR      r11,[r0,#0]
00002e  ea8a070b          EOR      r7,r10,r11
;;;1060       s1 = GETU32(in +  4) ^ rk[1];
000032  f893a004          LDRB     r10,[r3,#4]
000036  ea4f6b0a          LSL      r11,r10,#24
00003a  f893a005          LDRB     r10,[r3,#5]
00003e  ea8b4b0a          EOR      r11,r11,r10,LSL #16
000042  f893a006          LDRB     r10,[r3,#6]
000046  ea8b2a0a          EOR      r10,r11,r10,LSL #8
00004a  f893b007          LDRB     r11,[r3,#7]
00004e  ea8a0a0b          EOR      r10,r10,r11
000052  f8d0b004          LDR      r11,[r0,#4]
000056  ea8a0c0b          EOR      r12,r10,r11
;;;1061       s2 = GETU32(in +  8) ^ rk[2];
00005a  f893a008          LDRB     r10,[r3,#8]
00005e  ea4f6b0a          LSL      r11,r10,#24
000062  f893a009          LDRB     r10,[r3,#9]
000066  ea8b4b0a          EOR      r11,r11,r10,LSL #16
00006a  f893a00a          LDRB     r10,[r3,#0xa]
00006e  ea8b2a0a          EOR      r10,r11,r10,LSL #8
000072  f893b00b          LDRB     r11,[r3,#0xb]
000076  ea8a0a0b          EOR      r10,r10,r11
00007a  f8d0b008          LDR      r11,[r0,#8]
00007e  ea8a080b          EOR      r8,r10,r11
;;;1062       s3 = GETU32(in + 12) ^ rk[3];
000082  f893a00c          LDRB     r10,[r3,#0xc]
000086  ea4f6b0a          LSL      r11,r10,#24
00008a  f893a00d          LDRB     r10,[r3,#0xd]
00008e  ea8b4b0a          EOR      r11,r11,r10,LSL #16
000092  f893a00e          LDRB     r10,[r3,#0xe]
000096  ea8b2a0a          EOR      r10,r11,r10,LSL #8
00009a  f893b00f          LDRB     r11,[r3,#0xf]
00009e  ea8a0a0b          EOR      r10,r10,r11
0000a2  f8d0b00c          LDR      r11,[r0,#0xc]
0000a6  ea8a090b          EOR      r9,r10,r11
;;;1063   #ifdef FULL_UNROLL
;;;1064       /* round 1: */
;;;1065       t0 = Td0[s0 >> 24] ^ Td1[(s3 >> 16) & 0xff] ^ Td2[(s2 >>  8) & 0xff] ^ Td3[s1 & 0xff] ^ rk[ 4];
;;;1066       t1 = Td0[s1 >> 24] ^ Td1[(s0 >> 16) & 0xff] ^ Td2[(s3 >>  8) & 0xff] ^ Td3[s2 & 0xff] ^ rk[ 5];
;;;1067       t2 = Td0[s2 >> 24] ^ Td1[(s1 >> 16) & 0xff] ^ Td2[(s0 >>  8) & 0xff] ^ Td3[s3 & 0xff] ^ rk[ 6];
;;;1068       t3 = Td0[s3 >> 24] ^ Td1[(s2 >> 16) & 0xff] ^ Td2[(s1 >>  8) & 0xff] ^ Td3[s0 & 0xff] ^ rk[ 7];
;;;1069       /* round 2: */
;;;1070       s0 = Td0[t0 >> 24] ^ Td1[(t3 >> 16) & 0xff] ^ Td2[(t2 >>  8) & 0xff] ^ Td3[t1 & 0xff] ^ rk[ 8];
;;;1071       s1 = Td0[t1 >> 24] ^ Td1[(t0 >> 16) & 0xff] ^ Td2[(t3 >>  8) & 0xff] ^ Td3[t2 & 0xff] ^ rk[ 9];
;;;1072       s2 = Td0[t2 >> 24] ^ Td1[(t1 >> 16) & 0xff] ^ Td2[(t0 >>  8) & 0xff] ^ Td3[t3 & 0xff] ^ rk[10];
;;;1073       s3 = Td0[t3 >> 24] ^ Td1[(t2 >> 16) & 0xff] ^ Td2[(t1 >>  8) & 0xff] ^ Td3[t0 & 0xff] ^ rk[11];
;;;1074       /* round 3: */
;;;1075       t0 = Td0[s0 >> 24] ^ Td1[(s3 >> 16) & 0xff] ^ Td2[(s2 >>  8) & 0xff] ^ Td3[s1 & 0xff] ^ rk[12];
;;;1076       t1 = Td0[s1 >> 24] ^ Td1[(s0 >> 16) & 0xff] ^ Td2[(s3 >>  8) & 0xff] ^ Td3[s2 & 0xff] ^ rk[13];
;;;1077       t2 = Td0[s2 >> 24] ^ Td1[(s1 >> 16) & 0xff] ^ Td2[(s0 >>  8) & 0xff] ^ Td3[s3 & 0xff] ^ rk[14];
;;;1078       t3 = Td0[s3 >> 24] ^ Td1[(s2 >> 16) & 0xff] ^ Td2[(s1 >>  8) & 0xff] ^ Td3[s0 & 0xff] ^ rk[15];
;;;1079       /* round 4: */
;;;1080       s0 = Td0[t0 >> 24] ^ Td1[(t3 >> 16) & 0xff] ^ Td2[(t2 >>  8) & 0xff] ^ Td3[t1 & 0xff] ^ rk[16];
;;;1081       s1 = Td0[t1 >> 24] ^ Td1[(t0 >> 16) & 0xff] ^ Td2[(t3 >>  8) & 0xff] ^ Td3[t2 & 0xff] ^ rk[17];
;;;1082       s2 = Td0[t2 >> 24] ^ Td1[(t1 >> 16) & 0xff] ^ Td2[(t0 >>  8) & 0xff] ^ Td3[t3 & 0xff] ^ rk[18];
;;;1083       s3 = Td0[t3 >> 24] ^ Td1[(t2 >> 16) & 0xff] ^ Td2[(t1 >>  8) & 0xff] ^ Td3[t0 & 0xff] ^ rk[19];
;;;1084       /* round 5: */
;;;1085       t0 = Td0[s0 >> 24] ^ Td1[(s3 >> 16) & 0xff] ^ Td2[(s2 >>  8) & 0xff] ^ Td3[s1 & 0xff] ^ rk[20];
;;;1086       t1 = Td0[s1 >> 24] ^ Td1[(s0 >> 16) & 0xff] ^ Td2[(s3 >>  8) & 0xff] ^ Td3[s2 & 0xff] ^ rk[21];
;;;1087       t2 = Td0[s2 >> 24] ^ Td1[(s1 >> 16) & 0xff] ^ Td2[(s0 >>  8) & 0xff] ^ Td3[s3 & 0xff] ^ rk[22];
;;;1088       t3 = Td0[s3 >> 24] ^ Td1[(s2 >> 16) & 0xff] ^ Td2[(s1 >>  8) & 0xff] ^ Td3[s0 & 0xff] ^ rk[23];
;;;1089       /* round 6: */
;;;1090       s0 = Td0[t0 >> 24] ^ Td1[(t3 >> 16) & 0xff] ^ Td2[(t2 >>  8) & 0xff] ^ Td3[t1 & 0xff] ^ rk[24];
;;;1091       s1 = Td0[t1 >> 24] ^ Td1[(t0 >> 16) & 0xff] ^ Td2[(t3 >>  8) & 0xff] ^ Td3[t2 & 0xff] ^ rk[25];
;;;1092       s2 = Td0[t2 >> 24] ^ Td1[(t1 >> 16) & 0xff] ^ Td2[(t0 >>  8) & 0xff] ^ Td3[t3 & 0xff] ^ rk[26];
;;;1093       s3 = Td0[t3 >> 24] ^ Td1[(t2 >> 16) & 0xff] ^ Td2[(t1 >>  8) & 0xff] ^ Td3[t0 & 0xff] ^ rk[27];
;;;1094       /* round 7: */
;;;1095       t0 = Td0[s0 >> 24] ^ Td1[(s3 >> 16) & 0xff] ^ Td2[(s2 >>  8) & 0xff] ^ Td3[s1 & 0xff] ^ rk[28];
;;;1096       t1 = Td0[s1 >> 24] ^ Td1[(s0 >> 16) & 0xff] ^ Td2[(s3 >>  8) & 0xff] ^ Td3[s2 & 0xff] ^ rk[29];
;;;1097       t2 = Td0[s2 >> 24] ^ Td1[(s1 >> 16) & 0xff] ^ Td2[(s0 >>  8) & 0xff] ^ Td3[s3 & 0xff] ^ rk[30];
;;;1098       t3 = Td0[s3 >> 24] ^ Td1[(s2 >> 16) & 0xff] ^ Td2[(s1 >>  8) & 0xff] ^ Td3[s0 & 0xff] ^ rk[31];
;;;1099       /* round 8: */
;;;1100       s0 = Td0[t0 >> 24] ^ Td1[(t3 >> 16) & 0xff] ^ Td2[(t2 >>  8) & 0xff] ^ Td3[t1 & 0xff] ^ rk[32];
;;;1101       s1 = Td0[t1 >> 24] ^ Td1[(t0 >> 16) & 0xff] ^ Td2[(t3 >>  8) & 0xff] ^ Td3[t2 & 0xff] ^ rk[33];
;;;1102       s2 = Td0[t2 >> 24] ^ Td1[(t1 >> 16) & 0xff] ^ Td2[(t0 >>  8) & 0xff] ^ Td3[t3 & 0xff] ^ rk[34];
;;;1103       s3 = Td0[t3 >> 24] ^ Td1[(t2 >> 16) & 0xff] ^ Td2[(t1 >>  8) & 0xff] ^ Td3[t0 & 0xff] ^ rk[35];
;;;1104       /* round 9: */
;;;1105       t0 = Td0[s0 >> 24] ^ Td1[(s3 >> 16) & 0xff] ^ Td2[(s2 >>  8) & 0xff] ^ Td3[s1 & 0xff] ^ rk[36];
;;;1106       t1 = Td0[s1 >> 24] ^ Td1[(s0 >> 16) & 0xff] ^ Td2[(s3 >>  8) & 0xff] ^ Td3[s2 & 0xff] ^ rk[37];
;;;1107       t2 = Td0[s2 >> 24] ^ Td1[(s1 >> 16) & 0xff] ^ Td2[(s0 >>  8) & 0xff] ^ Td3[s3 & 0xff] ^ rk[38];
;;;1108       t3 = Td0[s3 >> 24] ^ Td1[(s2 >> 16) & 0xff] ^ Td2[(s1 >>  8) & 0xff] ^ Td3[s0 & 0xff] ^ rk[39];
;;;1109       if (key->rounds > 10) {
;;;1110           /* round 10: */
;;;1111           s0 = Td0[t0 >> 24] ^ Td1[(t3 >> 16) & 0xff] ^ Td2[(t2 >>  8) & 0xff] ^ Td3[t1 & 0xff] ^ rk[40];
;;;1112           s1 = Td0[t1 >> 24] ^ Td1[(t0 >> 16) & 0xff] ^ Td2[(t3 >>  8) & 0xff] ^ Td3[t2 & 0xff] ^ rk[41];
;;;1113           s2 = Td0[t2 >> 24] ^ Td1[(t1 >> 16) & 0xff] ^ Td2[(t0 >>  8) & 0xff] ^ Td3[t3 & 0xff] ^ rk[42];
;;;1114           s3 = Td0[t3 >> 24] ^ Td1[(t2 >> 16) & 0xff] ^ Td2[(t1 >>  8) & 0xff] ^ Td3[t0 & 0xff] ^ rk[43];
;;;1115           /* round 11: */
;;;1116           t0 = Td0[s0 >> 24] ^ Td1[(s3 >> 16) & 0xff] ^ Td2[(s2 >>  8) & 0xff] ^ Td3[s1 & 0xff] ^ rk[44];
;;;1117           t1 = Td0[s1 >> 24] ^ Td1[(s0 >> 16) & 0xff] ^ Td2[(s3 >>  8) & 0xff] ^ Td3[s2 & 0xff] ^ rk[45];
;;;1118           t2 = Td0[s2 >> 24] ^ Td1[(s1 >> 16) & 0xff] ^ Td2[(s0 >>  8) & 0xff] ^ Td3[s3 & 0xff] ^ rk[46];
;;;1119           t3 = Td0[s3 >> 24] ^ Td1[(s2 >> 16) & 0xff] ^ Td2[(s1 >>  8) & 0xff] ^ Td3[s0 & 0xff] ^ rk[47];
;;;1120           if (key->rounds > 12) {
;;;1121               /* round 12: */
;;;1122               s0 = Td0[t0 >> 24] ^ Td1[(t3 >> 16) & 0xff] ^ Td2[(t2 >>  8) & 0xff] ^ Td3[t1 & 0xff] ^ rk[48];
;;;1123               s1 = Td0[t1 >> 24] ^ Td1[(t0 >> 16) & 0xff] ^ Td2[(t3 >>  8) & 0xff] ^ Td3[t2 & 0xff] ^ rk[49];
;;;1124               s2 = Td0[t2 >> 24] ^ Td1[(t1 >> 16) & 0xff] ^ Td2[(t0 >>  8) & 0xff] ^ Td3[t3 & 0xff] ^ rk[50];
;;;1125               s3 = Td0[t3 >> 24] ^ Td1[(t2 >> 16) & 0xff] ^ Td2[(t1 >>  8) & 0xff] ^ Td3[t0 & 0xff] ^ rk[51];
;;;1126               /* round 13: */
;;;1127               t0 = Td0[s0 >> 24] ^ Td1[(s3 >> 16) & 0xff] ^ Td2[(s2 >>  8) & 0xff] ^ Td3[s1 & 0xff] ^ rk[52];
;;;1128               t1 = Td0[s1 >> 24] ^ Td1[(s0 >> 16) & 0xff] ^ Td2[(s3 >>  8) & 0xff] ^ Td3[s2 & 0xff] ^ rk[53];
;;;1129               t2 = Td0[s2 >> 24] ^ Td1[(s1 >> 16) & 0xff] ^ Td2[(s0 >>  8) & 0xff] ^ Td3[s3 & 0xff] ^ rk[54];
;;;1130               t3 = Td0[s3 >> 24] ^ Td1[(s2 >> 16) & 0xff] ^ Td2[(s1 >>  8) & 0xff] ^ Td3[s0 & 0xff] ^ rk[55];
;;;1131           }
;;;1132       }
;;;1133           rk += key->rounds << 2;
;;;1134   #else  /* !FULL_UNROLL */
;;;1135       /*
;;;1136        * Nr - 1 full rounds:
;;;1137        */
;;;1138       r = key->rounds >> 1;
0000aa  9803              LDR      r0,[sp,#0xc]
0000ac  f8d0a0f0          LDR      r10,[r0,#0xf0]
0000b0  ea4f0a6a          ASR      r10,r10,#1
0000b4  f8cda000          STR      r10,[sp,#0]
;;;1139       for (;;) {
0000b8  bf00              NOP      
                  |L2.186|
;;;1140           t0 =
0000ba  ea4f6a17          LSR      r10,r7,#24
0000be  f8dfb3cc          LDR      r11,|L2.1164|
0000c2  f85ba02a          LDR      r10,[r11,r10,LSL #2]
0000c6  f8dfb3c8          LDR      r11,|L2.1168|
0000ca  f3c94e07          UBFX     lr,r9,#16,#8
0000ce  f85bb02e          LDR      r11,[r11,lr,LSL #2]
0000d2  ea8a0a0b          EOR      r10,r10,r11
0000d6  f8dfb3bc          LDR      r11,|L2.1172|
0000da  f3c82e07          UBFX     lr,r8,#8,#8
0000de  f85bb02e          LDR      r11,[r11,lr,LSL #2]
0000e2  ea8a0a0b          EOR      r10,r10,r11
0000e6  f00c0bff          AND      r11,r12,#0xff
0000ea  f8dfe3ac          LDR      lr,|L2.1176|
0000ee  f85eb02b          LDR      r11,[lr,r11,LSL #2]
0000f2  ea8a0a0b          EOR      r10,r10,r11
0000f6  f8d0b010          LDR      r11,[r0,#0x10]
0000fa  ea8a020b          EOR      r2,r10,r11
;;;1141               Td0[(s0 >> 24)       ] ^
;;;1142               Td1[(s3 >> 16) & 0xff] ^
;;;1143               Td2[(s2 >>  8) & 0xff] ^
;;;1144               Td3[(s1      ) & 0xff] ^
;;;1145               rk[4];
;;;1146           t1 =
0000fe  ea4f6a1c          LSR      r10,r12,#24
000102  f8dfb388          LDR      r11,|L2.1164|
000106  f85ba02a          LDR      r10,[r11,r10,LSL #2]
00010a  f8dfb384          LDR      r11,|L2.1168|
00010e  f3c74e07          UBFX     lr,r7,#16,#8
000112  f85bb02e          LDR      r11,[r11,lr,LSL #2]
000116  ea8a0a0b          EOR      r10,r10,r11
00011a  f8dfb378          LDR      r11,|L2.1172|
00011e  f3c92e07          UBFX     lr,r9,#8,#8
000122  f85bb02e          LDR      r11,[r11,lr,LSL #2]
000126  ea8a0a0b          EOR      r10,r10,r11
00012a  f0080bff          AND      r11,r8,#0xff
00012e  f8dfe368          LDR      lr,|L2.1176|
000132  f85eb02b          LDR      r11,[lr,r11,LSL #2]
000136  ea8a0a0b          EOR      r10,r10,r11
00013a  f8d0b014          LDR      r11,[r0,#0x14]
00013e  ea8a040b          EOR      r4,r10,r11
;;;1147               Td0[(s1 >> 24)       ] ^
;;;1148               Td1[(s0 >> 16) & 0xff] ^
;;;1149               Td2[(s3 >>  8) & 0xff] ^
;;;1150               Td3[(s2      ) & 0xff] ^
;;;1151               rk[5];
;;;1152           t2 =
000142  ea4f6a18          LSR      r10,r8,#24
000146  f8dfb344          LDR      r11,|L2.1164|
00014a  f85ba02a          LDR      r10,[r11,r10,LSL #2]
00014e  f8dfb340          LDR      r11,|L2.1168|
000152  f3cc4e07          UBFX     lr,r12,#16,#8
000156  f85bb02e          LDR      r11,[r11,lr,LSL #2]
00015a  ea8a0a0b          EOR      r10,r10,r11
00015e  f8dfb334          LDR      r11,|L2.1172|
000162  f3c72e07          UBFX     lr,r7,#8,#8
000166  f85bb02e          LDR      r11,[r11,lr,LSL #2]
00016a  ea8a0a0b          EOR      r10,r10,r11
00016e  f0090bff          AND      r11,r9,#0xff
000172  f8dfe324          LDR      lr,|L2.1176|
000176  f85eb02b          LDR      r11,[lr,r11,LSL #2]
00017a  ea8a0a0b          EOR      r10,r10,r11
00017e  f8d0b018          LDR      r11,[r0,#0x18]
000182  ea8a050b          EOR      r5,r10,r11
;;;1153               Td0[(s2 >> 24)       ] ^
;;;1154               Td1[(s1 >> 16) & 0xff] ^
;;;1155               Td2[(s0 >>  8) & 0xff] ^
;;;1156               Td3[(s3      ) & 0xff] ^
;;;1157               rk[6];
;;;1158           t3 =
000186  ea4f6a19          LSR      r10,r9,#24
00018a  f8dfb300          LDR      r11,|L2.1164|
00018e  f85ba02a          LDR      r10,[r11,r10,LSL #2]
000192  f8dfb2fc          LDR      r11,|L2.1168|
000196  f3c84e07          UBFX     lr,r8,#16,#8
00019a  f85bb02e          LDR      r11,[r11,lr,LSL #2]
00019e  ea8a0a0b          EOR      r10,r10,r11
0001a2  f8dfb2f0          LDR      r11,|L2.1172|
0001a6  f3cc2e07          UBFX     lr,r12,#8,#8
0001aa  f85bb02e          LDR      r11,[r11,lr,LSL #2]
0001ae  ea8a0a0b          EOR      r10,r10,r11
0001b2  f0070bff          AND      r11,r7,#0xff
0001b6  f8dfe2e0          LDR      lr,|L2.1176|
0001ba  f85eb02b          LDR      r11,[lr,r11,LSL #2]
0001be  ea8a0a0b          EOR      r10,r10,r11
0001c2  f8d0b01c          LDR      r11,[r0,#0x1c]
0001c6  ea8a060b          EOR      r6,r10,r11
;;;1159               Td0[(s3 >> 24)       ] ^
;;;1160               Td1[(s2 >> 16) & 0xff] ^
;;;1161               Td2[(s1 >>  8) & 0xff] ^
;;;1162               Td3[(s0      ) & 0xff] ^
;;;1163               rk[7];
;;;1164   
;;;1165           rk += 8;
0001ca  3020              ADDS     r0,r0,#0x20
;;;1166           if (--r == 0) {
0001cc  f8dda000          LDR      r10,[sp,#0]
0001d0  f1ba0a01          SUBS     r10,r10,#1
0001d4  f8cda000          STR      r10,[sp,#0]
0001d8  d100              BNE      |L2.476|
;;;1167               break;
0001da  e088              B        |L2.750|
                  |L2.476|
;;;1168           }
;;;1169   
;;;1170           s0 =
0001dc  ea4f6a12          LSR      r10,r2,#24
0001e0  f8dfb2a8          LDR      r11,|L2.1164|
0001e4  f85ba02a          LDR      r10,[r11,r10,LSL #2]
0001e8  f8dfb2a4          LDR      r11,|L2.1168|
0001ec  f3c64e07          UBFX     lr,r6,#16,#8
0001f0  f85bb02e          LDR      r11,[r11,lr,LSL #2]
0001f4  ea8a0a0b          EOR      r10,r10,r11
0001f8  f8dfb298          LDR      r11,|L2.1172|
0001fc  f3c52e07          UBFX     lr,r5,#8,#8
000200  f85bb02e          LDR      r11,[r11,lr,LSL #2]
000204  ea8a0a0b          EOR      r10,r10,r11
000208  f0040bff          AND      r11,r4,#0xff
00020c  f8dfe288          LDR      lr,|L2.1176|
000210  f85eb02b          LDR      r11,[lr,r11,LSL #2]
000214  ea8a0a0b          EOR      r10,r10,r11
000218  f8d0b000          LDR      r11,[r0,#0]
00021c  ea8a070b          EOR      r7,r10,r11
;;;1171               Td0[(t0 >> 24)       ] ^
;;;1172               Td1[(t3 >> 16) & 0xff] ^
;;;1173               Td2[(t2 >>  8) & 0xff] ^
;;;1174               Td3[(t1      ) & 0xff] ^
;;;1175               rk[0];
;;;1176           s1 =
000220  ea4f6a14          LSR      r10,r4,#24
000224  f8dfb264          LDR      r11,|L2.1164|
000228  f85ba02a          LDR      r10,[r11,r10,LSL #2]
00022c  f8dfb260          LDR      r11,|L2.1168|
000230  f3c24e07          UBFX     lr,r2,#16,#8
000234  f85bb02e          LDR      r11,[r11,lr,LSL #2]
000238  ea8a0a0b          EOR      r10,r10,r11
00023c  f8dfb254          LDR      r11,|L2.1172|
000240  f3c62e07          UBFX     lr,r6,#8,#8
000244  f85bb02e          LDR      r11,[r11,lr,LSL #2]
000248  ea8a0a0b          EOR      r10,r10,r11
00024c  f0050bff          AND      r11,r5,#0xff
000250  f8dfe244          LDR      lr,|L2.1176|
000254  f85eb02b          LDR      r11,[lr,r11,LSL #2]
000258  ea8a0a0b          EOR      r10,r10,r11
00025c  f8d0b004          LDR      r11,[r0,#4]
000260  ea8a0c0b          EOR      r12,r10,r11
;;;1177               Td0[(t1 >> 24)       ] ^
;;;1178               Td1[(t0 >> 16) & 0xff] ^
;;;1179               Td2[(t3 >>  8) & 0xff] ^
;;;1180               Td3[(t2      ) & 0xff] ^
;;;1181               rk[1];
;;;1182           s2 =
000264  ea4f6a15          LSR      r10,r5,#24
000268  f8dfb220          LDR      r11,|L2.1164|
00026c  f85ba02a          LDR      r10,[r11,r10,LSL #2]
000270  f8dfb21c          LDR      r11,|L2.1168|
000274  f3c44e07          UBFX     lr,r4,#16,#8
000278  f85bb02e          LDR      r11,[r11,lr,LSL #2]
00027c  ea8a0a0b          EOR      r10,r10,r11
000280  f8dfb210          LDR      r11,|L2.1172|
000284  f3c22e07          UBFX     lr,r2,#8,#8
000288  f85bb02e          LDR      r11,[r11,lr,LSL #2]
00028c  ea8a0a0b          EOR      r10,r10,r11
000290  f0060bff          AND      r11,r6,#0xff
000294  f8dfe200          LDR      lr,|L2.1176|
000298  f85eb02b          LDR      r11,[lr,r11,LSL #2]
00029c  ea8a0a0b          EOR      r10,r10,r11
0002a0  f8d0b008          LDR      r11,[r0,#8]
0002a4  ea8a080b          EOR      r8,r10,r11
;;;1183               Td0[(t2 >> 24)       ] ^
;;;1184               Td1[(t1 >> 16) & 0xff] ^
;;;1185               Td2[(t0 >>  8) & 0xff] ^
;;;1186               Td3[(t3      ) & 0xff] ^
;;;1187               rk[2];
;;;1188           s3 =
0002a8  ea4f6a16          LSR      r10,r6,#24
0002ac  f8dfb1dc          LDR      r11,|L2.1164|
0002b0  f85ba02a          LDR      r10,[r11,r10,LSL #2]
0002b4  f8dfb1d8          LDR      r11,|L2.1168|
0002b8  f3c54e07          UBFX     lr,r5,#16,#8
0002bc  f85bb02e          LDR      r11,[r11,lr,LSL #2]
0002c0  ea8a0a0b          EOR      r10,r10,r11
0002c4  f8dfb1cc          LDR      r11,|L2.1172|
0002c8  f3c42e07          UBFX     lr,r4,#8,#8
0002cc  f85bb02e          LDR      r11,[r11,lr,LSL #2]
0002d0  ea8a0a0b          EOR      r10,r10,r11
0002d4  f0020bff          AND      r11,r2,#0xff
0002d8  f8dfe1bc          LDR      lr,|L2.1176|
0002dc  f85eb02b          LDR      r11,[lr,r11,LSL #2]
0002e0  ea8a0a0b          EOR      r10,r10,r11
0002e4  f8d0b00c          LDR      r11,[r0,#0xc]
0002e8  ea8a090b          EOR      r9,r10,r11
0002ec  e6e5              B        |L2.186|
                  |L2.750|
0002ee  bf00              NOP                            ;1167
;;;1189               Td0[(t3 >> 24)       ] ^
;;;1190               Td1[(t2 >> 16) & 0xff] ^
;;;1191               Td2[(t1 >>  8) & 0xff] ^
;;;1192               Td3[(t0      ) & 0xff] ^
;;;1193               rk[3];
;;;1194       }
;;;1195   #endif /* ?FULL_UNROLL */
;;;1196       /*
;;;1197            * apply last round and
;;;1198            * map cipher state to byte array block:
;;;1199            */
;;;1200           s0 =
0002f0  ea4f6a12          LSR      r10,r2,#24
0002f4  f8dfb1a4          LDR      r11,|L2.1180|
0002f8  f85ba02a          LDR      r10,[r11,r10,LSL #2]
0002fc  f00a4a7f          AND      r10,r10,#0xff000000
000300  f3c64e07          UBFX     lr,r6,#16,#8
000304  f85bb02e          LDR      r11,[r11,lr,LSL #2]
000308  f40b0b7f          AND      r11,r11,#0xff0000
00030c  ea8a0a0b          EOR      r10,r10,r11
000310  f8dfb188          LDR      r11,|L2.1180|
000314  f3c52e07          UBFX     lr,r5,#8,#8
000318  f83bb02e          LDRH     r11,[r11,lr,LSL #2]
00031c  f40b4b7f          AND      r11,r11,#0xff00
000320  ea8a0a0b          EOR      r10,r10,r11
000324  f0040bff          AND      r11,r4,#0xff
000328  f8dfe170          LDR      lr,|L2.1180|
00032c  f81eb02b          LDRB     r11,[lr,r11,LSL #2]
000330  ea8a0a0b          EOR      r10,r10,r11
000334  f8d0b000          LDR      r11,[r0,#0]
000338  ea8a070b          EOR      r7,r10,r11
;;;1201                   (Td4[(t0 >> 24)       ] & 0xff000000) ^
;;;1202                   (Td4[(t3 >> 16) & 0xff] & 0x00ff0000) ^
;;;1203                   (Td4[(t2 >>  8) & 0xff] & 0x0000ff00) ^
;;;1204                   (Td4[(t1      ) & 0xff] & 0x000000ff) ^
;;;1205                   rk[0];
;;;1206           PUTU32(out     , s0);
00033c  ea4f6a17          LSR      r10,r7,#24
000340  f881a000          STRB     r10,[r1,#0]
000344  ea4f4a17          LSR      r10,r7,#16
000348  f881a001          STRB     r10,[r1,#1]
00034c  ea4f2a17          LSR      r10,r7,#8
000350  f881a002          STRB     r10,[r1,#2]
000354  70cf              STRB     r7,[r1,#3]
;;;1207           s1 =
000356  ea4f6a14          LSR      r10,r4,#24
00035a  46f3              MOV      r11,lr
00035c  f85ba02a          LDR      r10,[r11,r10,LSL #2]
000360  f00a4a7f          AND      r10,r10,#0xff000000
000364  f3c24e07          UBFX     lr,r2,#16,#8
000368  f85bb02e          LDR      r11,[r11,lr,LSL #2]
00036c  f40b0b7f          AND      r11,r11,#0xff0000
000370  ea8a0a0b          EOR      r10,r10,r11
000374  f8dfb124          LDR      r11,|L2.1180|
000378  f3c62e07          UBFX     lr,r6,#8,#8
00037c  f83bb02e          LDRH     r11,[r11,lr,LSL #2]
000380  f40b4b7f          AND      r11,r11,#0xff00
000384  ea8a0a0b          EOR      r10,r10,r11
000388  f0050bff          AND      r11,r5,#0xff
00038c  f8dfe10c          LDR      lr,|L2.1180|
000390  f81eb02b          LDRB     r11,[lr,r11,LSL #2]
000394  ea8a0a0b          EOR      r10,r10,r11
000398  f8d0b004          LDR      r11,[r0,#4]
00039c  ea8a0c0b          EOR      r12,r10,r11
;;;1208                   (Td4[(t1 >> 24)       ] & 0xff000000) ^
;;;1209                   (Td4[(t0 >> 16) & 0xff] & 0x00ff0000) ^
;;;1210                   (Td4[(t3 >>  8) & 0xff] & 0x0000ff00) ^
;;;1211                   (Td4[(t2      ) & 0xff] & 0x000000ff) ^
;;;1212                   rk[1];
;;;1213           PUTU32(out +  4, s1);
0003a0  ea4f6a1c          LSR      r10,r12,#24
0003a4  f881a004          STRB     r10,[r1,#4]
0003a8  ea4f4b1c          LSR      r11,r12,#16
0003ac  f881b005          STRB     r11,[r1,#5]
0003b0  ea4f2b1c          LSR      r11,r12,#8
0003b4  f881b006          STRB     r11,[r1,#6]
0003b8  f881c007          STRB     r12,[r1,#7]
;;;1214           s2 =
0003bc  ea4f6a15          LSR      r10,r5,#24
0003c0  46f3              MOV      r11,lr
0003c2  f85ba02a          LDR      r10,[r11,r10,LSL #2]
0003c6  f00a4a7f          AND      r10,r10,#0xff000000
0003ca  f3c44e07          UBFX     lr,r4,#16,#8
0003ce  f85bb02e          LDR      r11,[r11,lr,LSL #2]
0003d2  f40b0b7f          AND      r11,r11,#0xff0000
0003d6  ea8a0a0b          EOR      r10,r10,r11
0003da  f8dfb0c0          LDR      r11,|L2.1180|
0003de  f3c22e07          UBFX     lr,r2,#8,#8
0003e2  f83bb02e          LDRH     r11,[r11,lr,LSL #2]
0003e6  f40b4b7f          AND      r11,r11,#0xff00
0003ea  ea8a0a0b          EOR      r10,r10,r11
0003ee  f0060bff          AND      r11,r6,#0xff
0003f2  f8dfe0a8          LDR      lr,|L2.1180|
0003f6  f81eb02b          LDRB     r11,[lr,r11,LSL #2]
0003fa  ea8a0a0b          EOR      r10,r10,r11
0003fe  f8d0b008          LDR      r11,[r0,#8]
000402  ea8a080b          EOR      r8,r10,r11
;;;1215                   (Td4[(t2 >> 24)       ] & 0xff000000) ^
;;;1216                   (Td4[(t1 >> 16) & 0xff] & 0x00ff0000) ^
;;;1217                   (Td4[(t0 >>  8) & 0xff] & 0x0000ff00) ^
;;;1218                   (Td4[(t3      ) & 0xff] & 0x000000ff) ^
;;;1219                   rk[2];
;;;1220           PUTU32(out +  8, s2);
000406  ea4f6a18          LSR      r10,r8,#24
00040a  f881a008          STRB     r10,[r1,#8]
00040e  ea4f4b18          LSR      r11,r8,#16
000412  f881b009          STRB     r11,[r1,#9]
000416  ea4f2b18          LSR      r11,r8,#8
00041a  f881b00a          STRB     r11,[r1,#0xa]
00041e  f881800b          STRB     r8,[r1,#0xb]
;;;1221           s3 =
000422  ea4f6a16          LSR      r10,r6,#24
000426  46f3              MOV      r11,lr
000428  f85ba02a          LDR      r10,[r11,r10,LSL #2]
00042c  f00a4a7f          AND      r10,r10,#0xff000000
000430  f3c54e07          UBFX     lr,r5,#16,#8
000434  f85bb02e          LDR      r11,[r11,lr,LSL #2]
000438  f40b0b7f          AND      r11,r11,#0xff0000
00043c  ea8a0a0b          EOR      r10,r10,r11
000440  f8dfb058          LDR      r11,|L2.1180|
000444  f3c42e07          UBFX     lr,r4,#8,#8
000448  f83bb02e          LDRH     r11,[r11,lr,LSL #2]
00044c  f40b4b7f          AND      r11,r11,#0xff00
000450  ea8a0a0b          EOR      r10,r10,r11
000454  f0020bff          AND      r11,r2,#0xff
000458  f8dfe040          LDR      lr,|L2.1180|
00045c  f81eb02b          LDRB     r11,[lr,r11,LSL #2]
000460  ea8a0a0b          EOR      r10,r10,r11
000464  f8d0b00c          LDR      r11,[r0,#0xc]
000468  ea8a090b          EOR      r9,r10,r11
;;;1222                   (Td4[(t3 >> 24)       ] & 0xff000000) ^
;;;1223                   (Td4[(t2 >> 16) & 0xff] & 0x00ff0000) ^
;;;1224                   (Td4[(t1 >>  8) & 0xff] & 0x0000ff00) ^
;;;1225                   (Td4[(t0      ) & 0xff] & 0x000000ff) ^
;;;1226                   rk[3];
;;;1227           PUTU32(out + 12, s3);
00046c  ea4f6a19          LSR      r10,r9,#24
000470  f881a00c          STRB     r10,[r1,#0xc]
000474  ea4f4b19          LSR      r11,r9,#16
000478  f881b00d          STRB     r11,[r1,#0xd]
00047c  ea4f2b19          LSR      r11,r9,#8
000480  f881b00e          STRB     r11,[r1,#0xe]
000484  f881900f          STRB     r9,[r1,#0xf]
;;;1228   }
000488  e8bd8fff          POP      {r0-r11,pc}
;;;1229   
                          ENDP

                  |L2.1164|
                          DCD      Td0
                  |L2.1168|
                          DCD      Td1
                  |L2.1172|
                          DCD      Td2
                  |L2.1176|
                          DCD      Td3
                  |L2.1180|
                          DCD      Td4

                          AREA ||i.AES_encrypt||, CODE, READONLY, ALIGN=2

                  AES_encrypt PROC
;;;851     */
;;;852    void AES_encrypt(const unsigned char *in, unsigned char *out,const AES_KEY *key) 
000000  e92d4ff7          PUSH     {r0-r2,r4-r11,lr}
;;;853    {
000004  b081              SUB      sp,sp,#4
000006  4603              MOV      r3,r0
;;;854    
;;;855            const uint32_t *rk;
;;;856            uint32_t s0, s1, s2, s3, t0, t1, t2, t3;
;;;857    #ifndef FULL_UNROLL
;;;858            int r;
;;;859    #endif /* ?FULL_UNROLL */
;;;860    
;;;861            //assert(in && out && key);
;;;862            rk = key->rd_key;
000008  9803              LDR      r0,[sp,#0xc]
;;;863    
;;;864            /*
;;;865             * map byte array block to cipher state
;;;866             * and add initial round key:
;;;867             */
;;;868            s0 = GETU32(in     ) ^ rk[0];
00000a  f893a000          LDRB     r10,[r3,#0]
00000e  ea4f6a0a          LSL      r10,r10,#24
000012  f893b001          LDRB     r11,[r3,#1]
000016  ea8a4a0b          EOR      r10,r10,r11,LSL #16
00001a  f893b002          LDRB     r11,[r3,#2]
00001e  ea8a2a0b          EOR      r10,r10,r11,LSL #8
000022  f893b003          LDRB     r11,[r3,#3]
000026  ea8a0a0b          EOR      r10,r10,r11
00002a  f8d0b000          LDR      r11,[r0,#0]
00002e  ea8a070b          EOR      r7,r10,r11
;;;869            s1 = GETU32(in +  4) ^ rk[1];
000032  f893a004          LDRB     r10,[r3,#4]
000036  ea4f6b0a          LSL      r11,r10,#24
00003a  f893a005          LDRB     r10,[r3,#5]
00003e  ea8b4b0a          EOR      r11,r11,r10,LSL #16
000042  f893a006          LDRB     r10,[r3,#6]
000046  ea8b2a0a          EOR      r10,r11,r10,LSL #8
00004a  f893b007          LDRB     r11,[r3,#7]
00004e  ea8a0a0b          EOR      r10,r10,r11
000052  f8d0b004          LDR      r11,[r0,#4]
000056  ea8a0c0b          EOR      r12,r10,r11
;;;870            s2 = GETU32(in +  8) ^ rk[2];
00005a  f893a008          LDRB     r10,[r3,#8]
00005e  ea4f6b0a          LSL      r11,r10,#24
000062  f893a009          LDRB     r10,[r3,#9]
000066  ea8b4b0a          EOR      r11,r11,r10,LSL #16
00006a  f893a00a          LDRB     r10,[r3,#0xa]
00006e  ea8b2a0a          EOR      r10,r11,r10,LSL #8
000072  f893b00b          LDRB     r11,[r3,#0xb]
000076  ea8a0a0b          EOR      r10,r10,r11
00007a  f8d0b008          LDR      r11,[r0,#8]
00007e  ea8a080b          EOR      r8,r10,r11
;;;871            s3 = GETU32(in + 12) ^ rk[3];
000082  f893a00c          LDRB     r10,[r3,#0xc]
000086  ea4f6b0a          LSL      r11,r10,#24
00008a  f893a00d          LDRB     r10,[r3,#0xd]
00008e  ea8b4b0a          EOR      r11,r11,r10,LSL #16
000092  f893a00e          LDRB     r10,[r3,#0xe]
000096  ea8b2a0a          EOR      r10,r11,r10,LSL #8
00009a  f893b00f          LDRB     r11,[r3,#0xf]
00009e  ea8a0a0b          EOR      r10,r10,r11
0000a2  f8d0b00c          LDR      r11,[r0,#0xc]
0000a6  ea8a090b          EOR      r9,r10,r11
;;;872    #ifdef FULL_UNROLL
;;;873            /* round 1: */
;;;874            t0 = Te0[s0 >> 24] ^ Te1[(s1 >> 16) & 0xff] ^ Te2[(s2 >>  8) & 0xff] ^ Te3[s3 & 0xff] ^ rk[ 4];
;;;875            t1 = Te0[s1 >> 24] ^ Te1[(s2 >> 16) & 0xff] ^ Te2[(s3 >>  8) & 0xff] ^ Te3[s0 & 0xff] ^ rk[ 5];
;;;876            t2 = Te0[s2 >> 24] ^ Te1[(s3 >> 16) & 0xff] ^ Te2[(s0 >>  8) & 0xff] ^ Te3[s1 & 0xff] ^ rk[ 6];
;;;877            t3 = Te0[s3 >> 24] ^ Te1[(s0 >> 16) & 0xff] ^ Te2[(s1 >>  8) & 0xff] ^ Te3[s2 & 0xff] ^ rk[ 7];
;;;878            /* round 2: */
;;;879            s0 = Te0[t0 >> 24] ^ Te1[(t1 >> 16) & 0xff] ^ Te2[(t2 >>  8) & 0xff] ^ Te3[t3 & 0xff] ^ rk[ 8];
;;;880            s1 = Te0[t1 >> 24] ^ Te1[(t2 >> 16) & 0xff] ^ Te2[(t3 >>  8) & 0xff] ^ Te3[t0 & 0xff] ^ rk[ 9];
;;;881            s2 = Te0[t2 >> 24] ^ Te1[(t3 >> 16) & 0xff] ^ Te2[(t0 >>  8) & 0xff] ^ Te3[t1 & 0xff] ^ rk[10];
;;;882            s3 = Te0[t3 >> 24] ^ Te1[(t0 >> 16) & 0xff] ^ Te2[(t1 >>  8) & 0xff] ^ Te3[t2 & 0xff] ^ rk[11];
;;;883            /* round 3: */
;;;884            t0 = Te0[s0 >> 24] ^ Te1[(s1 >> 16) & 0xff] ^ Te2[(s2 >>  8) & 0xff] ^ Te3[s3 & 0xff] ^ rk[12];
;;;885            t1 = Te0[s1 >> 24] ^ Te1[(s2 >> 16) & 0xff] ^ Te2[(s3 >>  8) & 0xff] ^ Te3[s0 & 0xff] ^ rk[13];
;;;886            t2 = Te0[s2 >> 24] ^ Te1[(s3 >> 16) & 0xff] ^ Te2[(s0 >>  8) & 0xff] ^ Te3[s1 & 0xff] ^ rk[14];
;;;887            t3 = Te0[s3 >> 24] ^ Te1[(s0 >> 16) & 0xff] ^ Te2[(s1 >>  8) & 0xff] ^ Te3[s2 & 0xff] ^ rk[15];
;;;888            /* round 4: */
;;;889            s0 = Te0[t0 >> 24] ^ Te1[(t1 >> 16) & 0xff] ^ Te2[(t2 >>  8) & 0xff] ^ Te3[t3 & 0xff] ^ rk[16];
;;;890            s1 = Te0[t1 >> 24] ^ Te1[(t2 >> 16) & 0xff] ^ Te2[(t3 >>  8) & 0xff] ^ Te3[t0 & 0xff] ^ rk[17];
;;;891            s2 = Te0[t2 >> 24] ^ Te1[(t3 >> 16) & 0xff] ^ Te2[(t0 >>  8) & 0xff] ^ Te3[t1 & 0xff] ^ rk[18];
;;;892            s3 = Te0[t3 >> 24] ^ Te1[(t0 >> 16) & 0xff] ^ Te2[(t1 >>  8) & 0xff] ^ Te3[t2 & 0xff] ^ rk[19];
;;;893            /* round 5: */
;;;894            t0 = Te0[s0 >> 24] ^ Te1[(s1 >> 16) & 0xff] ^ Te2[(s2 >>  8) & 0xff] ^ Te3[s3 & 0xff] ^ rk[20];
;;;895            t1 = Te0[s1 >> 24] ^ Te1[(s2 >> 16) & 0xff] ^ Te2[(s3 >>  8) & 0xff] ^ Te3[s0 & 0xff] ^ rk[21];
;;;896            t2 = Te0[s2 >> 24] ^ Te1[(s3 >> 16) & 0xff] ^ Te2[(s0 >>  8) & 0xff] ^ Te3[s1 & 0xff] ^ rk[22];
;;;897            t3 = Te0[s3 >> 24] ^ Te1[(s0 >> 16) & 0xff] ^ Te2[(s1 >>  8) & 0xff] ^ Te3[s2 & 0xff] ^ rk[23];
;;;898            /* round 6: */
;;;899            s0 = Te0[t0 >> 24] ^ Te1[(t1 >> 16) & 0xff] ^ Te2[(t2 >>  8) & 0xff] ^ Te3[t3 & 0xff] ^ rk[24];
;;;900            s1 = Te0[t1 >> 24] ^ Te1[(t2 >> 16) & 0xff] ^ Te2[(t3 >>  8) & 0xff] ^ Te3[t0 & 0xff] ^ rk[25];
;;;901            s2 = Te0[t2 >> 24] ^ Te1[(t3 >> 16) & 0xff] ^ Te2[(t0 >>  8) & 0xff] ^ Te3[t1 & 0xff] ^ rk[26];
;;;902            s3 = Te0[t3 >> 24] ^ Te1[(t0 >> 16) & 0xff] ^ Te2[(t1 >>  8) & 0xff] ^ Te3[t2 & 0xff] ^ rk[27];
;;;903            /* round 7: */
;;;904            t0 = Te0[s0 >> 24] ^ Te1[(s1 >> 16) & 0xff] ^ Te2[(s2 >>  8) & 0xff] ^ Te3[s3 & 0xff] ^ rk[28];
;;;905            t1 = Te0[s1 >> 24] ^ Te1[(s2 >> 16) & 0xff] ^ Te2[(s3 >>  8) & 0xff] ^ Te3[s0 & 0xff] ^ rk[29];
;;;906            t2 = Te0[s2 >> 24] ^ Te1[(s3 >> 16) & 0xff] ^ Te2[(s0 >>  8) & 0xff] ^ Te3[s1 & 0xff] ^ rk[30];
;;;907            t3 = Te0[s3 >> 24] ^ Te1[(s0 >> 16) & 0xff] ^ Te2[(s1 >>  8) & 0xff] ^ Te3[s2 & 0xff] ^ rk[31];
;;;908            /* round 8: */
;;;909            s0 = Te0[t0 >> 24] ^ Te1[(t1 >> 16) & 0xff] ^ Te2[(t2 >>  8) & 0xff] ^ Te3[t3 & 0xff] ^ rk[32];
;;;910            s1 = Te0[t1 >> 24] ^ Te1[(t2 >> 16) & 0xff] ^ Te2[(t3 >>  8) & 0xff] ^ Te3[t0 & 0xff] ^ rk[33];
;;;911            s2 = Te0[t2 >> 24] ^ Te1[(t3 >> 16) & 0xff] ^ Te2[(t0 >>  8) & 0xff] ^ Te3[t1 & 0xff] ^ rk[34];
;;;912            s3 = Te0[t3 >> 24] ^ Te1[(t0 >> 16) & 0xff] ^ Te2[(t1 >>  8) & 0xff] ^ Te3[t2 & 0xff] ^ rk[35];
;;;913            /* round 9: */
;;;914            t0 = Te0[s0 >> 24] ^ Te1[(s1 >> 16) & 0xff] ^ Te2[(s2 >>  8) & 0xff] ^ Te3[s3 & 0xff] ^ rk[36];
;;;915            t1 = Te0[s1 >> 24] ^ Te1[(s2 >> 16) & 0xff] ^ Te2[(s3 >>  8) & 0xff] ^ Te3[s0 & 0xff] ^ rk[37];
;;;916            t2 = Te0[s2 >> 24] ^ Te1[(s3 >> 16) & 0xff] ^ Te2[(s0 >>  8) & 0xff] ^ Te3[s1 & 0xff] ^ rk[38];
;;;917            t3 = Te0[s3 >> 24] ^ Te1[(s0 >> 16) & 0xff] ^ Te2[(s1 >>  8) & 0xff] ^ Te3[s2 & 0xff] ^ rk[39];
;;;918        if (key->rounds > 10) {
;;;919            /* round 10: */
;;;920            s0 = Te0[t0 >> 24] ^ Te1[(t1 >> 16) & 0xff] ^ Te2[(t2 >>  8) & 0xff] ^ Te3[t3 & 0xff] ^ rk[40];
;;;921            s1 = Te0[t1 >> 24] ^ Te1[(t2 >> 16) & 0xff] ^ Te2[(t3 >>  8) & 0xff] ^ Te3[t0 & 0xff] ^ rk[41];
;;;922            s2 = Te0[t2 >> 24] ^ Te1[(t3 >> 16) & 0xff] ^ Te2[(t0 >>  8) & 0xff] ^ Te3[t1 & 0xff] ^ rk[42];
;;;923            s3 = Te0[t3 >> 24] ^ Te1[(t0 >> 16) & 0xff] ^ Te2[(t1 >>  8) & 0xff] ^ Te3[t2 & 0xff] ^ rk[43];
;;;924            /* round 11: */
;;;925            t0 = Te0[s0 >> 24] ^ Te1[(s1 >> 16) & 0xff] ^ Te2[(s2 >>  8) & 0xff] ^ Te3[s3 & 0xff] ^ rk[44];
;;;926            t1 = Te0[s1 >> 24] ^ Te1[(s2 >> 16) & 0xff] ^ Te2[(s3 >>  8) & 0xff] ^ Te3[s0 & 0xff] ^ rk[45];
;;;927            t2 = Te0[s2 >> 24] ^ Te1[(s3 >> 16) & 0xff] ^ Te2[(s0 >>  8) & 0xff] ^ Te3[s1 & 0xff] ^ rk[46];
;;;928            t3 = Te0[s3 >> 24] ^ Te1[(s0 >> 16) & 0xff] ^ Te2[(s1 >>  8) & 0xff] ^ Te3[s2 & 0xff] ^ rk[47];
;;;929            if (key->rounds > 12) {
;;;930                /* round 12: */
;;;931                s0 = Te0[t0 >> 24] ^ Te1[(t1 >> 16) & 0xff] ^ Te2[(t2 >>  8) & 0xff] ^ Te3[t3 & 0xff] ^ rk[48];
;;;932                s1 = Te0[t1 >> 24] ^ Te1[(t2 >> 16) & 0xff] ^ Te2[(t3 >>  8) & 0xff] ^ Te3[t0 & 0xff] ^ rk[49];
;;;933                s2 = Te0[t2 >> 24] ^ Te1[(t3 >> 16) & 0xff] ^ Te2[(t0 >>  8) & 0xff] ^ Te3[t1 & 0xff] ^ rk[50];
;;;934                s3 = Te0[t3 >> 24] ^ Te1[(t0 >> 16) & 0xff] ^ Te2[(t1 >>  8) & 0xff] ^ Te3[t2 & 0xff] ^ rk[51];
;;;935                /* round 13: */
;;;936                t0 = Te0[s0 >> 24] ^ Te1[(s1 >> 16) & 0xff] ^ Te2[(s2 >>  8) & 0xff] ^ Te3[s3 & 0xff] ^ rk[52];
;;;937                t1 = Te0[s1 >> 24] ^ Te1[(s2 >> 16) & 0xff] ^ Te2[(s3 >>  8) & 0xff] ^ Te3[s0 & 0xff] ^ rk[53];
;;;938                t2 = Te0[s2 >> 24] ^ Te1[(s3 >> 16) & 0xff] ^ Te2[(s0 >>  8) & 0xff] ^ Te3[s1 & 0xff] ^ rk[54];
;;;939                t3 = Te0[s3 >> 24] ^ Te1[(s0 >> 16) & 0xff] ^ Te2[(s1 >>  8) & 0xff] ^ Te3[s2 & 0xff] ^ rk[55];
;;;940            }
;;;941        }
;;;942        rk += key->rounds << 2;
;;;943    #else  /* !FULL_UNROLL */
;;;944        /*
;;;945         * Nr - 1 full rounds:
;;;946         */
;;;947        r = key->rounds >> 1;
0000aa  9803              LDR      r0,[sp,#0xc]
0000ac  f8d0a0f0          LDR      r10,[r0,#0xf0]
0000b0  ea4f0a6a          ASR      r10,r10,#1
0000b4  f8cda000          STR      r10,[sp,#0]
;;;948        for (;;) {
0000b8  bf00              NOP      
                  |L3.186|
;;;949            t0 =
0000ba  ea4f6a17          LSR      r10,r7,#24
0000be  f8dfb3cc          LDR      r11,|L3.1164|
0000c2  f85ba02a          LDR      r10,[r11,r10,LSL #2]
0000c6  f8dfb3c8          LDR      r11,|L3.1168|
0000ca  f3cc4e07          UBFX     lr,r12,#16,#8
0000ce  f85bb02e          LDR      r11,[r11,lr,LSL #2]
0000d2  ea8a0a0b          EOR      r10,r10,r11
0000d6  f8dfb3bc          LDR      r11,|L3.1172|
0000da  f3c82e07          UBFX     lr,r8,#8,#8
0000de  f85bb02e          LDR      r11,[r11,lr,LSL #2]
0000e2  ea8a0a0b          EOR      r10,r10,r11
0000e6  f0090bff          AND      r11,r9,#0xff
0000ea  f8dfe3ac          LDR      lr,|L3.1176|
0000ee  f85eb02b          LDR      r11,[lr,r11,LSL #2]
0000f2  ea8a0a0b          EOR      r10,r10,r11
0000f6  f8d0b010          LDR      r11,[r0,#0x10]
0000fa  ea8a020b          EOR      r2,r10,r11
;;;950                Te0[(s0 >> 24)       ] ^
;;;951                Te1[(s1 >> 16) & 0xff] ^
;;;952                Te2[(s2 >>  8) & 0xff] ^
;;;953                Te3[(s3      ) & 0xff] ^
;;;954                rk[4];
;;;955            t1 =
0000fe  ea4f6a1c          LSR      r10,r12,#24
000102  f8dfb388          LDR      r11,|L3.1164|
000106  f85ba02a          LDR      r10,[r11,r10,LSL #2]
00010a  f8dfb384          LDR      r11,|L3.1168|
00010e  f3c84e07          UBFX     lr,r8,#16,#8
000112  f85bb02e          LDR      r11,[r11,lr,LSL #2]
000116  ea8a0a0b          EOR      r10,r10,r11
00011a  f8dfb378          LDR      r11,|L3.1172|
00011e  f3c92e07          UBFX     lr,r9,#8,#8
000122  f85bb02e          LDR      r11,[r11,lr,LSL #2]
000126  ea8a0a0b          EOR      r10,r10,r11
00012a  f0070bff          AND      r11,r7,#0xff
00012e  f8dfe368          LDR      lr,|L3.1176|
000132  f85eb02b          LDR      r11,[lr,r11,LSL #2]
000136  ea8a0a0b          EOR      r10,r10,r11
00013a  f8d0b014          LDR      r11,[r0,#0x14]
00013e  ea8a040b          EOR      r4,r10,r11
;;;956                Te0[(s1 >> 24)       ] ^
;;;957                Te1[(s2 >> 16) & 0xff] ^
;;;958                Te2[(s3 >>  8) & 0xff] ^
;;;959                Te3[(s0      ) & 0xff] ^
;;;960                rk[5];
;;;961            t2 =
000142  ea4f6a18          LSR      r10,r8,#24
000146  f8dfb344          LDR      r11,|L3.1164|
00014a  f85ba02a          LDR      r10,[r11,r10,LSL #2]
00014e  f8dfb340          LDR      r11,|L3.1168|
000152  f3c94e07          UBFX     lr,r9,#16,#8
000156  f85bb02e          LDR      r11,[r11,lr,LSL #2]
00015a  ea8a0a0b          EOR      r10,r10,r11
00015e  f8dfb334          LDR      r11,|L3.1172|
000162  f3c72e07          UBFX     lr,r7,#8,#8
000166  f85bb02e          LDR      r11,[r11,lr,LSL #2]
00016a  ea8a0a0b          EOR      r10,r10,r11
00016e  f00c0bff          AND      r11,r12,#0xff
000172  f8dfe324          LDR      lr,|L3.1176|
000176  f85eb02b          LDR      r11,[lr,r11,LSL #2]
00017a  ea8a0a0b          EOR      r10,r10,r11
00017e  f8d0b018          LDR      r11,[r0,#0x18]
000182  ea8a050b          EOR      r5,r10,r11
;;;962                Te0[(s2 >> 24)       ] ^
;;;963                Te1[(s3 >> 16) & 0xff] ^
;;;964                Te2[(s0 >>  8) & 0xff] ^
;;;965                Te3[(s1      ) & 0xff] ^
;;;966                rk[6];
;;;967            t3 =
000186  ea4f6a19          LSR      r10,r9,#24
00018a  f8dfb300          LDR      r11,|L3.1164|
00018e  f85ba02a          LDR      r10,[r11,r10,LSL #2]
000192  f8dfb2fc          LDR      r11,|L3.1168|
000196  f3c74e07          UBFX     lr,r7,#16,#8
00019a  f85bb02e          LDR      r11,[r11,lr,LSL #2]
00019e  ea8a0a0b          EOR      r10,r10,r11
0001a2  f8dfb2f0          LDR      r11,|L3.1172|
0001a6  f3cc2e07          UBFX     lr,r12,#8,#8
0001aa  f85bb02e          LDR      r11,[r11,lr,LSL #2]
0001ae  ea8a0a0b          EOR      r10,r10,r11
0001b2  f0080bff          AND      r11,r8,#0xff
0001b6  f8dfe2e0          LDR      lr,|L3.1176|
0001ba  f85eb02b          LDR      r11,[lr,r11,LSL #2]
0001be  ea8a0a0b          EOR      r10,r10,r11
0001c2  f8d0b01c          LDR      r11,[r0,#0x1c]
0001c6  ea8a060b          EOR      r6,r10,r11
;;;968                Te0[(s3 >> 24)       ] ^
;;;969                Te1[(s0 >> 16) & 0xff] ^
;;;970                Te2[(s1 >>  8) & 0xff] ^
;;;971                Te3[(s2      ) & 0xff] ^
;;;972                rk[7];
;;;973    
;;;974            rk += 8;
0001ca  3020              ADDS     r0,r0,#0x20
;;;975            if (--r == 0) {
0001cc  f8dda000          LDR      r10,[sp,#0]
0001d0  f1ba0a01          SUBS     r10,r10,#1
0001d4  f8cda000          STR      r10,[sp,#0]
0001d8  d100              BNE      |L3.476|
;;;976                break;
0001da  e088              B        |L3.750|
                  |L3.476|
;;;977            }
;;;978    
;;;979            s0 =
0001dc  ea4f6a12          LSR      r10,r2,#24
0001e0  f8dfb2a8          LDR      r11,|L3.1164|
0001e4  f85ba02a          LDR      r10,[r11,r10,LSL #2]
0001e8  f8dfb2a4          LDR      r11,|L3.1168|
0001ec  f3c44e07          UBFX     lr,r4,#16,#8
0001f0  f85bb02e          LDR      r11,[r11,lr,LSL #2]
0001f4  ea8a0a0b          EOR      r10,r10,r11
0001f8  f8dfb298          LDR      r11,|L3.1172|
0001fc  f3c52e07          UBFX     lr,r5,#8,#8
000200  f85bb02e          LDR      r11,[r11,lr,LSL #2]
000204  ea8a0a0b          EOR      r10,r10,r11
000208  f0060bff          AND      r11,r6,#0xff
00020c  f8dfe288          LDR      lr,|L3.1176|
000210  f85eb02b          LDR      r11,[lr,r11,LSL #2]
000214  ea8a0a0b          EOR      r10,r10,r11
000218  f8d0b000          LDR      r11,[r0,#0]
00021c  ea8a070b          EOR      r7,r10,r11
;;;980                Te0[(t0 >> 24)       ] ^
;;;981                Te1[(t1 >> 16) & 0xff] ^
;;;982                Te2[(t2 >>  8) & 0xff] ^
;;;983                Te3[(t3      ) & 0xff] ^
;;;984                rk[0];
;;;985            s1 =
000220  ea4f6a14          LSR      r10,r4,#24
000224  f8dfb264          LDR      r11,|L3.1164|
000228  f85ba02a          LDR      r10,[r11,r10,LSL #2]
00022c  f8dfb260          LDR      r11,|L3.1168|
000230  f3c54e07          UBFX     lr,r5,#16,#8
000234  f85bb02e          LDR      r11,[r11,lr,LSL #2]
000238  ea8a0a0b          EOR      r10,r10,r11
00023c  f8dfb254          LDR      r11,|L3.1172|
000240  f3c62e07          UBFX     lr,r6,#8,#8
000244  f85bb02e          LDR      r11,[r11,lr,LSL #2]
000248  ea8a0a0b          EOR      r10,r10,r11
00024c  f0020bff          AND      r11,r2,#0xff
000250  f8dfe244          LDR      lr,|L3.1176|
000254  f85eb02b          LDR      r11,[lr,r11,LSL #2]
000258  ea8a0a0b          EOR      r10,r10,r11
00025c  f8d0b004          LDR      r11,[r0,#4]
000260  ea8a0c0b          EOR      r12,r10,r11
;;;986                Te0[(t1 >> 24)       ] ^
;;;987                Te1[(t2 >> 16) & 0xff] ^
;;;988                Te2[(t3 >>  8) & 0xff] ^
;;;989                Te3[(t0      ) & 0xff] ^
;;;990                rk[1];
;;;991            s2 =
000264  ea4f6a15          LSR      r10,r5,#24
000268  f8dfb220          LDR      r11,|L3.1164|
00026c  f85ba02a          LDR      r10,[r11,r10,LSL #2]
000270  f8dfb21c          LDR      r11,|L3.1168|
000274  f3c64e07          UBFX     lr,r6,#16,#8
000278  f85bb02e          LDR      r11,[r11,lr,LSL #2]
00027c  ea8a0a0b          EOR      r10,r10,r11
000280  f8dfb210          LDR      r11,|L3.1172|
000284  f3c22e07          UBFX     lr,r2,#8,#8
000288  f85bb02e          LDR      r11,[r11,lr,LSL #2]
00028c  ea8a0a0b          EOR      r10,r10,r11
000290  f0040bff          AND      r11,r4,#0xff
000294  f8dfe200          LDR      lr,|L3.1176|
000298  f85eb02b          LDR      r11,[lr,r11,LSL #2]
00029c  ea8a0a0b          EOR      r10,r10,r11
0002a0  f8d0b008          LDR      r11,[r0,#8]
0002a4  ea8a080b          EOR      r8,r10,r11
;;;992                Te0[(t2 >> 24)       ] ^
;;;993                Te1[(t3 >> 16) & 0xff] ^
;;;994                Te2[(t0 >>  8) & 0xff] ^
;;;995                Te3[(t1      ) & 0xff] ^
;;;996                rk[2];
;;;997            s3 =
0002a8  ea4f6a16          LSR      r10,r6,#24
0002ac  f8dfb1dc          LDR      r11,|L3.1164|
0002b0  f85ba02a          LDR      r10,[r11,r10,LSL #2]
0002b4  f8dfb1d8          LDR      r11,|L3.1168|
0002b8  f3c24e07          UBFX     lr,r2,#16,#8
0002bc  f85bb02e          LDR      r11,[r11,lr,LSL #2]
0002c0  ea8a0a0b          EOR      r10,r10,r11
0002c4  f8dfb1cc          LDR      r11,|L3.1172|
0002c8  f3c42e07          UBFX     lr,r4,#8,#8
0002cc  f85bb02e          LDR      r11,[r11,lr,LSL #2]
0002d0  ea8a0a0b          EOR      r10,r10,r11
0002d4  f0050bff          AND      r11,r5,#0xff
0002d8  f8dfe1bc          LDR      lr,|L3.1176|
0002dc  f85eb02b          LDR      r11,[lr,r11,LSL #2]
0002e0  ea8a0a0b          EOR      r10,r10,r11
0002e4  f8d0b00c          LDR      r11,[r0,#0xc]
0002e8  ea8a090b          EOR      r9,r10,r11
0002ec  e6e5              B        |L3.186|
                  |L3.750|
0002ee  bf00              NOP                            ;976
;;;998                Te0[(t3 >> 24)       ] ^
;;;999                Te1[(t0 >> 16) & 0xff] ^
;;;1000               Te2[(t1 >>  8) & 0xff] ^
;;;1001               Te3[(t2      ) & 0xff] ^
;;;1002               rk[3];
;;;1003       }
;;;1004   #endif /* ?FULL_UNROLL */
;;;1005       /*
;;;1006            * apply last round and
;;;1007            * map cipher state to byte array block:
;;;1008            */
;;;1009           s0 =
0002f0  ea4f6a12          LSR      r10,r2,#24
0002f4  f8dfb1a4          LDR      r11,|L3.1180|
0002f8  f85ba02a          LDR      r10,[r11,r10,LSL #2]
0002fc  f00a4a7f          AND      r10,r10,#0xff000000
000300  f3c44e07          UBFX     lr,r4,#16,#8
000304  f85bb02e          LDR      r11,[r11,lr,LSL #2]
000308  f40b0b7f          AND      r11,r11,#0xff0000
00030c  ea8a0a0b          EOR      r10,r10,r11
000310  f8dfb188          LDR      r11,|L3.1180|
000314  f3c52e07          UBFX     lr,r5,#8,#8
000318  f83bb02e          LDRH     r11,[r11,lr,LSL #2]
00031c  f40b4b7f          AND      r11,r11,#0xff00
000320  ea8a0a0b          EOR      r10,r10,r11
000324  f0060bff          AND      r11,r6,#0xff
000328  f8dfe170          LDR      lr,|L3.1180|
00032c  f81eb02b          LDRB     r11,[lr,r11,LSL #2]
000330  ea8a0a0b          EOR      r10,r10,r11
000334  f8d0b000          LDR      r11,[r0,#0]
000338  ea8a070b          EOR      r7,r10,r11
;;;1010                   (Te4[(t0 >> 24)       ] & 0xff000000) ^
;;;1011                   (Te4[(t1 >> 16) & 0xff] & 0x00ff0000) ^
;;;1012                   (Te4[(t2 >>  8) & 0xff] & 0x0000ff00) ^
;;;1013                   (Te4[(t3      ) & 0xff] & 0x000000ff) ^
;;;1014                   rk[0];
;;;1015           PUTU32(out     , s0);
00033c  ea4f6a17          LSR      r10,r7,#24
000340  f881a000          STRB     r10,[r1,#0]
000344  ea4f4a17          LSR      r10,r7,#16
000348  f881a001          STRB     r10,[r1,#1]
00034c  ea4f2a17          LSR      r10,r7,#8
000350  f881a002          STRB     r10,[r1,#2]
000354  70cf              STRB     r7,[r1,#3]
;;;1016           s1 =
000356  ea4f6a14          LSR      r10,r4,#24
00035a  46f3              MOV      r11,lr
00035c  f85ba02a          LDR      r10,[r11,r10,LSL #2]
000360  f00a4a7f          AND      r10,r10,#0xff000000
000364  f3c54e07          UBFX     lr,r5,#16,#8
000368  f85bb02e          LDR      r11,[r11,lr,LSL #2]
00036c  f40b0b7f          AND      r11,r11,#0xff0000
000370  ea8a0a0b          EOR      r10,r10,r11
000374  f8dfb124          LDR      r11,|L3.1180|
000378  f3c62e07          UBFX     lr,r6,#8,#8
00037c  f83bb02e          LDRH     r11,[r11,lr,LSL #2]
000380  f40b4b7f          AND      r11,r11,#0xff00
000384  ea8a0a0b          EOR      r10,r10,r11
000388  f0020bff          AND      r11,r2,#0xff
00038c  f8dfe10c          LDR      lr,|L3.1180|
000390  f81eb02b          LDRB     r11,[lr,r11,LSL #2]
000394  ea8a0a0b          EOR      r10,r10,r11
000398  f8d0b004          LDR      r11,[r0,#4]
00039c  ea8a0c0b          EOR      r12,r10,r11
;;;1017                   (Te4[(t1 >> 24)       ] & 0xff000000) ^
;;;1018                   (Te4[(t2 >> 16) & 0xff] & 0x00ff0000) ^
;;;1019                   (Te4[(t3 >>  8) & 0xff] & 0x0000ff00) ^
;;;1020                   (Te4[(t0      ) & 0xff] & 0x000000ff) ^
;;;1021                   rk[1];
;;;1022           PUTU32(out +  4, s1);
0003a0  ea4f6a1c          LSR      r10,r12,#24
0003a4  f881a004          STRB     r10,[r1,#4]
0003a8  ea4f4b1c          LSR      r11,r12,#16
0003ac  f881b005          STRB     r11,[r1,#5]
0003b0  ea4f2b1c          LSR      r11,r12,#8
0003b4  f881b006          STRB     r11,[r1,#6]
0003b8  f881c007          STRB     r12,[r1,#7]
;;;1023           s2 =
0003bc  ea4f6a15          LSR      r10,r5,#24
0003c0  46f3              MOV      r11,lr
0003c2  f85ba02a          LDR      r10,[r11,r10,LSL #2]
0003c6  f00a4a7f          AND      r10,r10,#0xff000000
0003ca  f3c64e07          UBFX     lr,r6,#16,#8
0003ce  f85bb02e          LDR      r11,[r11,lr,LSL #2]
0003d2  f40b0b7f          AND      r11,r11,#0xff0000
0003d6  ea8a0a0b          EOR      r10,r10,r11
0003da  f8dfb0c0          LDR      r11,|L3.1180|
0003de  f3c22e07          UBFX     lr,r2,#8,#8
0003e2  f83bb02e          LDRH     r11,[r11,lr,LSL #2]
0003e6  f40b4b7f          AND      r11,r11,#0xff00
0003ea  ea8a0a0b          EOR      r10,r10,r11
0003ee  f0040bff          AND      r11,r4,#0xff
0003f2  f8dfe0a8          LDR      lr,|L3.1180|
0003f6  f81eb02b          LDRB     r11,[lr,r11,LSL #2]
0003fa  ea8a0a0b          EOR      r10,r10,r11
0003fe  f8d0b008          LDR      r11,[r0,#8]
000402  ea8a080b          EOR      r8,r10,r11
;;;1024                   (Te4[(t2 >> 24)       ] & 0xff000000) ^
;;;1025                   (Te4[(t3 >> 16) & 0xff] & 0x00ff0000) ^
;;;1026                   (Te4[(t0 >>  8) & 0xff] & 0x0000ff00) ^
;;;1027                   (Te4[(t1      ) & 0xff] & 0x000000ff) ^
;;;1028                   rk[2];
;;;1029           PUTU32(out +  8, s2);
000406  ea4f6a18          LSR      r10,r8,#24
00040a  f881a008          STRB     r10,[r1,#8]
00040e  ea4f4b18          LSR      r11,r8,#16
000412  f881b009          STRB     r11,[r1,#9]
000416  ea4f2b18          LSR      r11,r8,#8
00041a  f881b00a          STRB     r11,[r1,#0xa]
00041e  f881800b          STRB     r8,[r1,#0xb]
;;;1030           s3 =
000422  ea4f6a16          LSR      r10,r6,#24
000426  46f3              MOV      r11,lr
000428  f85ba02a          LDR      r10,[r11,r10,LSL #2]
00042c  f00a4a7f          AND      r10,r10,#0xff000000
000430  f3c24e07          UBFX     lr,r2,#16,#8
000434  f85bb02e          LDR      r11,[r11,lr,LSL #2]
000438  f40b0b7f          AND      r11,r11,#0xff0000
00043c  ea8a0a0b          EOR      r10,r10,r11
000440  f8dfb058          LDR      r11,|L3.1180|
000444  f3c42e07          UBFX     lr,r4,#8,#8
000448  f83bb02e          LDRH     r11,[r11,lr,LSL #2]
00044c  f40b4b7f          AND      r11,r11,#0xff00
000450  ea8a0a0b          EOR      r10,r10,r11
000454  f0050bff          AND      r11,r5,#0xff
000458  f8dfe040          LDR      lr,|L3.1180|
00045c  f81eb02b          LDRB     r11,[lr,r11,LSL #2]
000460  ea8a0a0b          EOR      r10,r10,r11
000464  f8d0b00c          LDR      r11,[r0,#0xc]
000468  ea8a090b          EOR      r9,r10,r11
;;;1031                   (Te4[(t3 >> 24)       ] & 0xff000000) ^
;;;1032                   (Te4[(t0 >> 16) & 0xff] & 0x00ff0000) ^
;;;1033                   (Te4[(t1 >>  8) & 0xff] & 0x0000ff00) ^
;;;1034                   (Te4[(t2      ) & 0xff] & 0x000000ff) ^
;;;1035                   rk[3];
;;;1036           PUTU32(out + 12, s3);
00046c  ea4f6a19          LSR      r10,r9,#24
000470  f881a00c          STRB     r10,[r1,#0xc]
000474  ea4f4b19          LSR      r11,r9,#16
000478  f881b00d          STRB     r11,[r1,#0xd]
00047c  ea4f2b19          LSR      r11,r9,#8
000480  f881b00e          STRB     r11,[r1,#0xe]
000484  f881900f          STRB     r9,[r1,#0xf]
;;;1037   }
000488  e8bd8fff          POP      {r0-r11,pc}
;;;1038   
                          ENDP

                  |L3.1164|
                          DCD      Te0
                  |L3.1168|
                          DCD      Te1
                  |L3.1172|
                          DCD      Te2
                  |L3.1176|
                          DCD      Te3
                  |L3.1180|
                          DCD      Te4

                          AREA ||i.AES_set_decrypt_key||, CODE, READONLY, ALIGN=2

                  AES_set_decrypt_key PROC
;;;799     */
;;;800    int AES_set_decrypt_key(const unsigned char *userKey, const int bits,AES_KEY *key) 
000000  e92d4ff0          PUSH     {r4-r11,lr}
;;;801    {
000004  4682              MOV      r10,r0
000006  468b              MOV      r11,r1
000008  4617              MOV      r7,r2
;;;802            uint32_t *rk;
;;;803            int i, j, status;
;;;804            uint32_t temp;
;;;805    
;;;806            /* first, start with an encryption schedule */
;;;807            status = AES_set_encrypt_key(userKey, bits, key);
00000a  463a              MOV      r2,r7
00000c  4659              MOV      r1,r11
00000e  4650              MOV      r0,r10
000010  f7fffffe          BL       AES_set_encrypt_key
000014  4681              MOV      r9,r0
;;;808            if (status < 0)
000016  f1b90f00          CMP      r9,#0
00001a  da02              BGE      |L4.34|
;;;809                    return status;
00001c  4648              MOV      r0,r9
                  |L4.30|
;;;810    
;;;811            rk = key->rd_key;
;;;812    
;;;813            /* invert the order of the round keys: */
;;;814            for (i = 0, j = 4*(key->rounds); i < j; i += 4, j -= 4) {
;;;815                    temp = rk[i    ]; rk[i    ] = rk[j    ]; rk[j    ] = temp;
;;;816                    temp = rk[i + 1]; rk[i + 1] = rk[j + 1]; rk[j + 1] = temp;
;;;817                    temp = rk[i + 2]; rk[i + 2] = rk[j + 2]; rk[j + 2] = temp;
;;;818                    temp = rk[i + 3]; rk[i + 3] = rk[j + 3]; rk[j + 3] = temp;
;;;819            }
;;;820            /* apply the inverse MixColumn transform to all round keys but the first and the last: */
;;;821            for (i = 1; i < (key->rounds); i++) {
;;;822                    rk += 4;
;;;823                    rk[0] =
;;;824                            Td0[Te4[(rk[0] >> 24)       ] & 0xff] ^
;;;825                            Td1[Te4[(rk[0] >> 16) & 0xff] & 0xff] ^
;;;826                            Td2[Te4[(rk[0] >>  8) & 0xff] & 0xff] ^
;;;827                            Td3[Te4[(rk[0]      ) & 0xff] & 0xff];
;;;828                    rk[1] =
;;;829                            Td0[Te4[(rk[1] >> 24)       ] & 0xff] ^
;;;830                            Td1[Te4[(rk[1] >> 16) & 0xff] & 0xff] ^
;;;831                            Td2[Te4[(rk[1] >>  8) & 0xff] & 0xff] ^
;;;832                            Td3[Te4[(rk[1]      ) & 0xff] & 0xff];
;;;833                    rk[2] =
;;;834                            Td0[Te4[(rk[2] >> 24)       ] & 0xff] ^
;;;835                            Td1[Te4[(rk[2] >> 16) & 0xff] & 0xff] ^
;;;836                            Td2[Te4[(rk[2] >>  8) & 0xff] & 0xff] ^
;;;837                            Td3[Te4[(rk[2]      ) & 0xff] & 0xff];
;;;838                    rk[3] =
;;;839                            Td0[Te4[(rk[3] >> 24)       ] & 0xff] ^
;;;840                            Td1[Te4[(rk[3] >> 16) & 0xff] & 0xff] ^
;;;841                            Td2[Te4[(rk[3] >>  8) & 0xff] & 0xff] ^
;;;842                            Td3[Te4[(rk[3]      ) & 0xff] & 0xff];
;;;843            }
;;;844            return 0;
;;;845    }
00001e  e8bd8ff0          POP      {r4-r11,pc}
                  |L4.34|
000022  463c              MOV      r4,r7                 ;811
000024  2500              MOVS     r5,#0                 ;814
000026  f8d700f0          LDR      r0,[r7,#0xf0]         ;814
00002a  0086              LSLS     r6,r0,#2              ;814
00002c  e02d              B        |L4.138|
                  |L4.46|
00002e  f8548025          LDR      r8,[r4,r5,LSL #2]     ;815
000032  f8540026          LDR      r0,[r4,r6,LSL #2]     ;815
000036  f8440025          STR      r0,[r4,r5,LSL #2]     ;815
00003a  f8448026          STR      r8,[r4,r6,LSL #2]     ;815
00003e  1c68              ADDS     r0,r5,#1              ;816
000040  f8548020          LDR      r8,[r4,r0,LSL #2]     ;816
000044  1c70              ADDS     r0,r6,#1              ;816
000046  f8541020          LDR      r1,[r4,r0,LSL #2]     ;816
00004a  1c68              ADDS     r0,r5,#1              ;816
00004c  f8441020          STR      r1,[r4,r0,LSL #2]     ;816
000050  1c70              ADDS     r0,r6,#1              ;816
000052  f8448020          STR      r8,[r4,r0,LSL #2]     ;816
000056  1ca8              ADDS     r0,r5,#2              ;817
000058  f8548020          LDR      r8,[r4,r0,LSL #2]     ;817
00005c  1cb0              ADDS     r0,r6,#2              ;817
00005e  f8541020          LDR      r1,[r4,r0,LSL #2]     ;817
000062  1ca8              ADDS     r0,r5,#2              ;817
000064  f8441020          STR      r1,[r4,r0,LSL #2]     ;817
000068  1cb0              ADDS     r0,r6,#2              ;817
00006a  f8448020          STR      r8,[r4,r0,LSL #2]     ;817
00006e  1ce8              ADDS     r0,r5,#3              ;818
000070  f8548020          LDR      r8,[r4,r0,LSL #2]     ;818
000074  1cf0              ADDS     r0,r6,#3              ;818
000076  f8541020          LDR      r1,[r4,r0,LSL #2]     ;818
00007a  1ce8              ADDS     r0,r5,#3              ;818
00007c  f8441020          STR      r1,[r4,r0,LSL #2]     ;818
000080  1cf0              ADDS     r0,r6,#3              ;818
000082  f8448020          STR      r8,[r4,r0,LSL #2]     ;818
000086  1d2d              ADDS     r5,r5,#4              ;814
000088  1f36              SUBS     r6,r6,#4              ;814
                  |L4.138|
00008a  42b5              CMP      r5,r6                 ;814
00008c  dbcf              BLT      |L4.46|
00008e  2501              MOVS     r5,#1                 ;821
000090  e095              B        |L4.446|
                  |L4.146|
000092  3410              ADDS     r4,r4,#0x10           ;822
000094  6820              LDR      r0,[r4,#0]            ;823
000096  0e00              LSRS     r0,r0,#24             ;823
000098  494c              LDR      r1,|L4.460|
00009a  f8110020          LDRB     r0,[r1,r0,LSL #2]     ;823
00009e  494c              LDR      r1,|L4.464|
0000a0  f8510020          LDR      r0,[r1,r0,LSL #2]     ;823
0000a4  6821              LDR      r1,[r4,#0]            ;823
0000a6  f3c14107          UBFX     r1,r1,#16,#8          ;823
0000aa  4a48              LDR      r2,|L4.460|
0000ac  f8121021          LDRB     r1,[r2,r1,LSL #2]     ;823
0000b0  4a48              LDR      r2,|L4.468|
0000b2  f8521021          LDR      r1,[r2,r1,LSL #2]     ;823
0000b6  4048              EORS     r0,r0,r1              ;823
0000b8  8821              LDRH     r1,[r4,#0]            ;823
0000ba  f3c12107          UBFX     r1,r1,#8,#8           ;823
0000be  4a43              LDR      r2,|L4.460|
0000c0  f8121021          LDRB     r1,[r2,r1,LSL #2]     ;823
0000c4  4a44              LDR      r2,|L4.472|
0000c6  f8521021          LDR      r1,[r2,r1,LSL #2]     ;823
0000ca  4048              EORS     r0,r0,r1              ;823
0000cc  7821              LDRB     r1,[r4,#0]            ;823
0000ce  4a3f              LDR      r2,|L4.460|
0000d0  f8121021          LDRB     r1,[r2,r1,LSL #2]     ;823
0000d4  4a41              LDR      r2,|L4.476|
0000d6  f8521021          LDR      r1,[r2,r1,LSL #2]     ;823
0000da  4048              EORS     r0,r0,r1              ;823
0000dc  6020              STR      r0,[r4,#0]            ;823
0000de  6860              LDR      r0,[r4,#4]            ;828
0000e0  0e00              LSRS     r0,r0,#24             ;828
0000e2  493a              LDR      r1,|L4.460|
0000e4  f8110020          LDRB     r0,[r1,r0,LSL #2]     ;828
0000e8  4939              LDR      r1,|L4.464|
0000ea  f8510020          LDR      r0,[r1,r0,LSL #2]     ;828
0000ee  6861              LDR      r1,[r4,#4]            ;828
0000f0  f3c14107          UBFX     r1,r1,#16,#8          ;828
0000f4  4a35              LDR      r2,|L4.460|
0000f6  f8121021          LDRB     r1,[r2,r1,LSL #2]     ;828
0000fa  4a36              LDR      r2,|L4.468|
0000fc  f8521021          LDR      r1,[r2,r1,LSL #2]     ;828
000100  4048              EORS     r0,r0,r1              ;828
000102  88a1              LDRH     r1,[r4,#4]            ;828
000104  f3c12107          UBFX     r1,r1,#8,#8           ;828
000108  4a30              LDR      r2,|L4.460|
00010a  f8121021          LDRB     r1,[r2,r1,LSL #2]     ;828
00010e  4a32              LDR      r2,|L4.472|
000110  f8521021          LDR      r1,[r2,r1,LSL #2]     ;828
000114  4048              EORS     r0,r0,r1              ;828
000116  7921              LDRB     r1,[r4,#4]            ;828
000118  4a2c              LDR      r2,|L4.460|
00011a  f8121021          LDRB     r1,[r2,r1,LSL #2]     ;828
00011e  4a2f              LDR      r2,|L4.476|
000120  f8521021          LDR      r1,[r2,r1,LSL #2]     ;828
000124  4048              EORS     r0,r0,r1              ;828
000126  6060              STR      r0,[r4,#4]            ;828
000128  68a0              LDR      r0,[r4,#8]            ;833
00012a  0e00              LSRS     r0,r0,#24             ;833
00012c  4927              LDR      r1,|L4.460|
00012e  f8110020          LDRB     r0,[r1,r0,LSL #2]     ;833
000132  4927              LDR      r1,|L4.464|
000134  f8510020          LDR      r0,[r1,r0,LSL #2]     ;833
000138  68a1              LDR      r1,[r4,#8]            ;833
00013a  f3c14107          UBFX     r1,r1,#16,#8          ;833
00013e  4a23              LDR      r2,|L4.460|
000140  f8121021          LDRB     r1,[r2,r1,LSL #2]     ;833
000144  4a23              LDR      r2,|L4.468|
000146  f8521021          LDR      r1,[r2,r1,LSL #2]     ;833
00014a  4048              EORS     r0,r0,r1              ;833
00014c  8921              LDRH     r1,[r4,#8]            ;833
00014e  f3c12107          UBFX     r1,r1,#8,#8           ;833
000152  4a1e              LDR      r2,|L4.460|
000154  f8121021          LDRB     r1,[r2,r1,LSL #2]     ;833
000158  4a1f              LDR      r2,|L4.472|
00015a  f8521021          LDR      r1,[r2,r1,LSL #2]     ;833
00015e  4048              EORS     r0,r0,r1              ;833
000160  7a21              LDRB     r1,[r4,#8]            ;833
000162  4a1a              LDR      r2,|L4.460|
000164  f8121021          LDRB     r1,[r2,r1,LSL #2]     ;833
000168  4a1c              LDR      r2,|L4.476|
00016a  f8521021          LDR      r1,[r2,r1,LSL #2]     ;833
00016e  4048              EORS     r0,r0,r1              ;833
000170  60a0              STR      r0,[r4,#8]            ;833
000172  68e0              LDR      r0,[r4,#0xc]          ;838
000174  0e00              LSRS     r0,r0,#24             ;838
000176  4915              LDR      r1,|L4.460|
000178  f8110020          LDRB     r0,[r1,r0,LSL #2]     ;838
00017c  4914              LDR      r1,|L4.464|
00017e  f8510020          LDR      r0,[r1,r0,LSL #2]     ;838
000182  68e1              LDR      r1,[r4,#0xc]          ;838
000184  f3c14107          UBFX     r1,r1,#16,#8          ;838
000188  4a10              LDR      r2,|L4.460|
00018a  f8121021          LDRB     r1,[r2,r1,LSL #2]     ;838
00018e  4a11              LDR      r2,|L4.468|
000190  f8521021          LDR      r1,[r2,r1,LSL #2]     ;838
000194  4048              EORS     r0,r0,r1              ;838
000196  89a1              LDRH     r1,[r4,#0xc]          ;838
000198  f3c12107          UBFX     r1,r1,#8,#8           ;838
00019c  4a0b              LDR      r2,|L4.460|
00019e  f8121021          LDRB     r1,[r2,r1,LSL #2]     ;838
0001a2  4a0d              LDR      r2,|L4.472|
0001a4  f8521021          LDR      r1,[r2,r1,LSL #2]     ;838
0001a8  4048              EORS     r0,r0,r1              ;838
0001aa  7b21              LDRB     r1,[r4,#0xc]          ;838
0001ac  4a07              LDR      r2,|L4.460|
0001ae  f8121021          LDRB     r1,[r2,r1,LSL #2]     ;838
0001b2  4a0a              LDR      r2,|L4.476|
0001b4  f8521021          LDR      r1,[r2,r1,LSL #2]     ;838
0001b8  4048              EORS     r0,r0,r1              ;838
0001ba  60e0              STR      r0,[r4,#0xc]          ;838
0001bc  1c6d              ADDS     r5,r5,#1              ;821
                  |L4.446|
0001be  f8d700f0          LDR      r0,[r7,#0xf0]         ;821
0001c2  42a8              CMP      r0,r5                 ;821
0001c4  f73faf65          BGT      |L4.146|
0001c8  2000              MOVS     r0,#0                 ;844
0001ca  e728              B        |L4.30|
;;;846    
                          ENDP

                  |L4.460|
                          DCD      Te4
                  |L4.464|
                          DCD      Td0
                  |L4.468|
                          DCD      Td1
                  |L4.472|
                          DCD      Td2
                  |L4.476|
                          DCD      Td3

                          AREA ||i.AES_set_encrypt_key||, CODE, READONLY, ALIGN=2

                  AES_set_encrypt_key PROC
;;;698     */
;;;699    int AES_set_encrypt_key(const unsigned char *userKey, const int bits,AES_KEY *key) 
000000  b5f0              PUSH     {r4-r7,lr}
;;;700    {
000002  4603              MOV      r3,r0
000004  460c              MOV      r4,r1
000006  4615              MOV      r5,r2
;;;701    
;;;702            uint32_t *rk;
;;;703            int i = 0;
000008  2600              MOVS     r6,#0
;;;704            uint32_t temp;
;;;705    
;;;706            if (!userKey || !key)
00000a  b103              CBZ      r3,|L5.14|
00000c  b915              CBNZ     r5,|L5.20|
                  |L5.14|
;;;707                    return -1;
00000e  f04f30ff          MOV      r0,#0xffffffff
                  |L5.18|
;;;708            if (bits != 128 && bits != 192 && bits != 256)
;;;709                    return -2;
;;;710    
;;;711            rk = key->rd_key;
;;;712    
;;;713            if (bits==128)
;;;714                    key->rounds = 10;
;;;715            else if (bits==192)
;;;716                    key->rounds = 12;
;;;717            else
;;;718                    key->rounds = 14;
;;;719    
;;;720            rk[0] = GETU32(userKey     );
;;;721            rk[1] = GETU32(userKey +  4);
;;;722            rk[2] = GETU32(userKey +  8);
;;;723            rk[3] = GETU32(userKey + 12);
;;;724            if (bits == 128) {
;;;725                    while (1) {
;;;726                            temp  = rk[3];
;;;727                            rk[4] = rk[0] ^
;;;728                                    (Te4[(temp >> 16) & 0xff] & 0xff000000) ^
;;;729                                    (Te4[(temp >>  8) & 0xff] & 0x00ff0000) ^
;;;730                                    (Te4[(temp      ) & 0xff] & 0x0000ff00) ^
;;;731                                    (Te4[(temp >> 24)       ] & 0x000000ff) ^
;;;732                                    rcon[i];
;;;733                            rk[5] = rk[1] ^ rk[4];
;;;734                            rk[6] = rk[2] ^ rk[5];
;;;735                            rk[7] = rk[3] ^ rk[6];
;;;736                            if (++i == 10) {
;;;737                                    return 0;
;;;738                            }
;;;739                            rk += 4;
;;;740                    }
;;;741            }
;;;742            rk[4] = GETU32(userKey + 16);
;;;743            rk[5] = GETU32(userKey + 20);
;;;744            if (bits == 192) {
;;;745                    while (1) {
;;;746                            temp = rk[ 5];
;;;747                            rk[ 6] = rk[ 0] ^
;;;748                                    (Te4[(temp >> 16) & 0xff] & 0xff000000) ^
;;;749                                    (Te4[(temp >>  8) & 0xff] & 0x00ff0000) ^
;;;750                                    (Te4[(temp      ) & 0xff] & 0x0000ff00) ^
;;;751                                    (Te4[(temp >> 24)       ] & 0x000000ff) ^
;;;752                                    rcon[i];
;;;753                            rk[ 7] = rk[ 1] ^ rk[ 6];
;;;754                            rk[ 8] = rk[ 2] ^ rk[ 7];
;;;755                            rk[ 9] = rk[ 3] ^ rk[ 8];
;;;756                            if (++i == 8) {
;;;757                                    return 0;
;;;758                            }
;;;759                            rk[10] = rk[ 4] ^ rk[ 9];
;;;760                            rk[11] = rk[ 5] ^ rk[10];
;;;761                            rk += 6;
;;;762                    }
;;;763            }
;;;764            rk[6] = GETU32(userKey + 24);
;;;765            rk[7] = GETU32(userKey + 28);
;;;766            if (bits == 256) {
;;;767                    while (1) {
;;;768                            temp = rk[ 7];
;;;769                            rk[ 8] = rk[ 0] ^
;;;770                                    (Te4[(temp >> 16) & 0xff] & 0xff000000) ^
;;;771                                    (Te4[(temp >>  8) & 0xff] & 0x00ff0000) ^
;;;772                                    (Te4[(temp      ) & 0xff] & 0x0000ff00) ^
;;;773                                    (Te4[(temp >> 24)       ] & 0x000000ff) ^
;;;774                                    rcon[i];
;;;775                            rk[ 9] = rk[ 1] ^ rk[ 8];
;;;776                            rk[10] = rk[ 2] ^ rk[ 9];
;;;777                            rk[11] = rk[ 3] ^ rk[10];
;;;778                            if (++i == 7) {
;;;779                                    return 0;
;;;780                            }
;;;781                            temp = rk[11];
;;;782                            rk[12] = rk[ 4] ^
;;;783                                    (Te4[(temp >> 24)       ] & 0xff000000) ^
;;;784                                    (Te4[(temp >> 16) & 0xff] & 0x00ff0000) ^
;;;785                                    (Te4[(temp >>  8) & 0xff] & 0x0000ff00) ^
;;;786                                    (Te4[(temp      ) & 0xff] & 0x000000ff);
;;;787                            rk[13] = rk[ 5] ^ rk[12];
;;;788                            rk[14] = rk[ 6] ^ rk[13];
;;;789                            rk[15] = rk[ 7] ^ rk[14];
;;;790    
;;;791                            rk += 8;
;;;792                    }
;;;793            }
;;;794            return 0;
;;;795    }
000012  bdf0              POP      {r4-r7,pc}
                  |L5.20|
000014  2c80              CMP      r4,#0x80              ;708
000016  d007              BEQ      |L5.40|
000018  2cc0              CMP      r4,#0xc0              ;708
00001a  d005              BEQ      |L5.40|
00001c  f5b47f80          CMP      r4,#0x100             ;708
000020  d002              BEQ      |L5.40|
000022  f06f0001          MVN      r0,#1                 ;709
000026  e7f4              B        |L5.18|
                  |L5.40|
000028  4629              MOV      r1,r5                 ;711
00002a  2c80              CMP      r4,#0x80              ;713
00002c  d103              BNE      |L5.54|
00002e  200a              MOVS     r0,#0xa               ;714
000030  f8c500f0          STR      r0,[r5,#0xf0]         ;714
000034  e008              B        |L5.72|
                  |L5.54|
000036  2cc0              CMP      r4,#0xc0              ;715
000038  d103              BNE      |L5.66|
00003a  200c              MOVS     r0,#0xc               ;716
00003c  f8c500f0          STR      r0,[r5,#0xf0]         ;716
000040  e002              B        |L5.72|
                  |L5.66|
000042  200e              MOVS     r0,#0xe               ;718
000044  f8c500f0          STR      r0,[r5,#0xf0]         ;718
                  |L5.72|
000048  7818              LDRB     r0,[r3,#0]            ;720
00004a  0600              LSLS     r0,r0,#24             ;720
00004c  785f              LDRB     r7,[r3,#1]            ;720
00004e  ea804007          EOR      r0,r0,r7,LSL #16      ;720
000052  789f              LDRB     r7,[r3,#2]            ;720
000054  ea802007          EOR      r0,r0,r7,LSL #8       ;720
000058  78df              LDRB     r7,[r3,#3]            ;720
00005a  4078              EORS     r0,r0,r7              ;720
00005c  6008              STR      r0,[r1,#0]            ;720
00005e  7918              LDRB     r0,[r3,#4]            ;721
000060  0607              LSLS     r7,r0,#24             ;721
000062  7958              LDRB     r0,[r3,#5]            ;721
000064  ea874700          EOR      r7,r7,r0,LSL #16      ;721
000068  7998              LDRB     r0,[r3,#6]            ;721
00006a  ea872000          EOR      r0,r7,r0,LSL #8       ;721
00006e  79df              LDRB     r7,[r3,#7]            ;721
000070  4078              EORS     r0,r0,r7              ;721
000072  6048              STR      r0,[r1,#4]            ;721
000074  7a18              LDRB     r0,[r3,#8]            ;722
000076  0607              LSLS     r7,r0,#24             ;722
000078  7a58              LDRB     r0,[r3,#9]            ;722
00007a  ea874700          EOR      r7,r7,r0,LSL #16      ;722
00007e  7a98              LDRB     r0,[r3,#0xa]          ;722
000080  ea872000          EOR      r0,r7,r0,LSL #8       ;722
000084  7adf              LDRB     r7,[r3,#0xb]          ;722
000086  4078              EORS     r0,r0,r7              ;722
000088  6088              STR      r0,[r1,#8]            ;722
00008a  7b18              LDRB     r0,[r3,#0xc]          ;723
00008c  0607              LSLS     r7,r0,#24             ;723
00008e  7b58              LDRB     r0,[r3,#0xd]          ;723
000090  ea874700          EOR      r7,r7,r0,LSL #16      ;723
000094  7b98              LDRB     r0,[r3,#0xe]          ;723
000096  ea872000          EOR      r0,r7,r0,LSL #8       ;723
00009a  7bdf              LDRB     r7,[r3,#0xf]          ;723
00009c  4078              EORS     r0,r0,r7              ;723
00009e  60c8              STR      r0,[r1,#0xc]          ;723
0000a0  2c80              CMP      r4,#0x80              ;724
0000a2  d137              BNE      |L5.276|
0000a4  e035              B        |L5.274|
                  |L5.166|
0000a6  68ca              LDR      r2,[r1,#0xc]          ;726
0000a8  4f86              LDR      r7,|L5.708|
0000aa  f3c24c07          UBFX     r12,r2,#16,#8         ;727
0000ae  f857702c          LDR      r7,[r7,r12,LSL #2]    ;727
0000b2  f007477f          AND      r7,r7,#0xff000000     ;727
0000b6  6808              LDR      r0,[r1,#0]            ;727
0000b8  4078              EORS     r0,r0,r7              ;727
0000ba  4f82              LDR      r7,|L5.708|
0000bc  f3c22c07          UBFX     r12,r2,#8,#8          ;727
0000c0  f857702c          LDR      r7,[r7,r12,LSL #2]    ;727
0000c4  f407077f          AND      r7,r7,#0xff0000       ;727
0000c8  4078              EORS     r0,r0,r7              ;727
0000ca  b2d7              UXTB     r7,r2                 ;727
0000cc  f8dfc1f4          LDR      r12,|L5.708|
0000d0  f83c7027          LDRH     r7,[r12,r7,LSL #2]    ;727
0000d4  f407477f          AND      r7,r7,#0xff00         ;727
0000d8  4078              EORS     r0,r0,r7              ;727
0000da  0e17              LSRS     r7,r2,#24             ;727
0000dc  f81c7027          LDRB     r7,[r12,r7,LSL #2]    ;727
0000e0  4078              EORS     r0,r0,r7              ;727
0000e2  4f79              LDR      r7,|L5.712|
0000e4  f8577026          LDR      r7,[r7,r6,LSL #2]     ;727
0000e8  4078              EORS     r0,r0,r7              ;727
0000ea  6108              STR      r0,[r1,#0x10]         ;727
0000ec  690f              LDR      r7,[r1,#0x10]         ;733
0000ee  6848              LDR      r0,[r1,#4]            ;733
0000f0  4078              EORS     r0,r0,r7              ;733
0000f2  6148              STR      r0,[r1,#0x14]         ;733
0000f4  694f              LDR      r7,[r1,#0x14]         ;734
0000f6  6888              LDR      r0,[r1,#8]            ;734
0000f8  4078              EORS     r0,r0,r7              ;734
0000fa  6188              STR      r0,[r1,#0x18]         ;734
0000fc  698f              LDR      r7,[r1,#0x18]         ;735
0000fe  68c8              LDR      r0,[r1,#0xc]          ;735
000100  4078              EORS     r0,r0,r7              ;735
000102  61c8              STR      r0,[r1,#0x1c]         ;735
000104  1c70              ADDS     r0,r6,#1              ;736
000106  4606              MOV      r6,r0                 ;736
000108  280a              CMP      r0,#0xa               ;736
00010a  d101              BNE      |L5.272|
00010c  2000              MOVS     r0,#0                 ;737
00010e  e780              B        |L5.18|
                  |L5.272|
000110  3110              ADDS     r1,r1,#0x10           ;739
                  |L5.274|
000112  e7c8              B        |L5.166|
                  |L5.276|
000114  7c18              LDRB     r0,[r3,#0x10]         ;742
000116  0607              LSLS     r7,r0,#24             ;742
000118  7c58              LDRB     r0,[r3,#0x11]         ;742
00011a  ea874700          EOR      r7,r7,r0,LSL #16      ;742
00011e  7c98              LDRB     r0,[r3,#0x12]         ;742
000120  ea872000          EOR      r0,r7,r0,LSL #8       ;742
000124  7cdf              LDRB     r7,[r3,#0x13]         ;742
000126  4078              EORS     r0,r0,r7              ;742
000128  6108              STR      r0,[r1,#0x10]         ;742
00012a  7d18              LDRB     r0,[r3,#0x14]         ;743
00012c  0607              LSLS     r7,r0,#24             ;743
00012e  7d58              LDRB     r0,[r3,#0x15]         ;743
000130  ea874700          EOR      r7,r7,r0,LSL #16      ;743
000134  7d98              LDRB     r0,[r3,#0x16]         ;743
000136  ea872000          EOR      r0,r7,r0,LSL #8       ;743
00013a  7ddf              LDRB     r7,[r3,#0x17]         ;743
00013c  4078              EORS     r0,r0,r7              ;743
00013e  6148              STR      r0,[r1,#0x14]         ;743
000140  2cc0              CMP      r4,#0xc0              ;744
000142  d13f              BNE      |L5.452|
000144  e03d              B        |L5.450|
                  |L5.326|
000146  694a              LDR      r2,[r1,#0x14]         ;746
000148  4f5e              LDR      r7,|L5.708|
00014a  f3c24c07          UBFX     r12,r2,#16,#8         ;747
00014e  f857702c          LDR      r7,[r7,r12,LSL #2]    ;747
000152  f007477f          AND      r7,r7,#0xff000000     ;747
000156  6808              LDR      r0,[r1,#0]            ;747
000158  4078              EORS     r0,r0,r7              ;747
00015a  4f5a              LDR      r7,|L5.708|
00015c  f3c22c07          UBFX     r12,r2,#8,#8          ;747
000160  f857702c          LDR      r7,[r7,r12,LSL #2]    ;747
000164  f407077f          AND      r7,r7,#0xff0000       ;747
000168  4078              EORS     r0,r0,r7              ;747
00016a  b2d7              UXTB     r7,r2                 ;747
00016c  f8dfc154          LDR      r12,|L5.708|
000170  f83c7027          LDRH     r7,[r12,r7,LSL #2]    ;747
000174  f407477f          AND      r7,r7,#0xff00         ;747
000178  4078              EORS     r0,r0,r7              ;747
00017a  0e17              LSRS     r7,r2,#24             ;747
00017c  f81c7027          LDRB     r7,[r12,r7,LSL #2]    ;747
000180  4078              EORS     r0,r0,r7              ;747
000182  4f51              LDR      r7,|L5.712|
000184  f8577026          LDR      r7,[r7,r6,LSL #2]     ;747
000188  4078              EORS     r0,r0,r7              ;747
00018a  6188              STR      r0,[r1,#0x18]         ;747
00018c  698f              LDR      r7,[r1,#0x18]         ;753
00018e  6848              LDR      r0,[r1,#4]            ;753
000190  4078              EORS     r0,r0,r7              ;753
000192  61c8              STR      r0,[r1,#0x1c]         ;753
000194  69cf              LDR      r7,[r1,#0x1c]         ;754
000196  6888              LDR      r0,[r1,#8]            ;754
000198  4078              EORS     r0,r0,r7              ;754
00019a  6208              STR      r0,[r1,#0x20]         ;754
00019c  6a0f              LDR      r7,[r1,#0x20]         ;755
00019e  68c8              LDR      r0,[r1,#0xc]          ;755
0001a0  4078              EORS     r0,r0,r7              ;755
0001a2  6248              STR      r0,[r1,#0x24]         ;755
0001a4  1c70              ADDS     r0,r6,#1              ;756
0001a6  4606              MOV      r6,r0                 ;756
0001a8  2808              CMP      r0,#8                 ;756
0001aa  d101              BNE      |L5.432|
0001ac  2000              MOVS     r0,#0                 ;757
0001ae  e730              B        |L5.18|
                  |L5.432|
0001b0  6a4f              LDR      r7,[r1,#0x24]         ;759
0001b2  6908              LDR      r0,[r1,#0x10]         ;759
0001b4  4078              EORS     r0,r0,r7              ;759
0001b6  6288              STR      r0,[r1,#0x28]         ;759
0001b8  6a8f              LDR      r7,[r1,#0x28]         ;760
0001ba  6948              LDR      r0,[r1,#0x14]         ;760
0001bc  4078              EORS     r0,r0,r7              ;760
0001be  62c8              STR      r0,[r1,#0x2c]         ;760
0001c0  3118              ADDS     r1,r1,#0x18           ;761
                  |L5.450|
0001c2  e7c0              B        |L5.326|
                  |L5.452|
0001c4  7e18              LDRB     r0,[r3,#0x18]         ;764
0001c6  0607              LSLS     r7,r0,#24             ;764
0001c8  7e58              LDRB     r0,[r3,#0x19]         ;764
0001ca  ea874700          EOR      r7,r7,r0,LSL #16      ;764
0001ce  7e98              LDRB     r0,[r3,#0x1a]         ;764
0001d0  ea872000          EOR      r0,r7,r0,LSL #8       ;764
0001d4  7edf              LDRB     r7,[r3,#0x1b]         ;764
0001d6  4078              EORS     r0,r0,r7              ;764
0001d8  6188              STR      r0,[r1,#0x18]         ;764
0001da  7f18              LDRB     r0,[r3,#0x1c]         ;765
0001dc  0607              LSLS     r7,r0,#24             ;765
0001de  7f58              LDRB     r0,[r3,#0x1d]         ;765
0001e0  ea874700          EOR      r7,r7,r0,LSL #16      ;765
0001e4  7f98              LDRB     r0,[r3,#0x1e]         ;765
0001e6  ea872000          EOR      r0,r7,r0,LSL #8       ;765
0001ea  7fdf              LDRB     r7,[r3,#0x1f]         ;765
0001ec  4078              EORS     r0,r0,r7              ;765
0001ee  61c8              STR      r0,[r1,#0x1c]         ;765
0001f0  f5b47f80          CMP      r4,#0x100             ;766
0001f4  d164              BNE      |L5.704|
0001f6  e062              B        |L5.702|
                  |L5.504|
0001f8  69ca              LDR      r2,[r1,#0x1c]         ;768
0001fa  4f32              LDR      r7,|L5.708|
0001fc  f3c24c07          UBFX     r12,r2,#16,#8         ;769
000200  f857702c          LDR      r7,[r7,r12,LSL #2]    ;769
000204  f007477f          AND      r7,r7,#0xff000000     ;769
000208  6808              LDR      r0,[r1,#0]            ;769
00020a  4078              EORS     r0,r0,r7              ;769
00020c  4f2d              LDR      r7,|L5.708|
00020e  f3c22c07          UBFX     r12,r2,#8,#8          ;769
000212  f857702c          LDR      r7,[r7,r12,LSL #2]    ;769
000216  f407077f          AND      r7,r7,#0xff0000       ;769
00021a  4078              EORS     r0,r0,r7              ;769
00021c  b2d7              UXTB     r7,r2                 ;769
00021e  f8dfc0a4          LDR      r12,|L5.708|
000222  f83c7027          LDRH     r7,[r12,r7,LSL #2]    ;769
000226  f407477f          AND      r7,r7,#0xff00         ;769
00022a  4078              EORS     r0,r0,r7              ;769
00022c  0e17              LSRS     r7,r2,#24             ;769
00022e  f81c7027          LDRB     r7,[r12,r7,LSL #2]    ;769
000232  4078              EORS     r0,r0,r7              ;769
000234  4f24              LDR      r7,|L5.712|
000236  f8577026          LDR      r7,[r7,r6,LSL #2]     ;769
00023a  4078              EORS     r0,r0,r7              ;769
00023c  6208              STR      r0,[r1,#0x20]         ;769
00023e  6a0f              LDR      r7,[r1,#0x20]         ;775
000240  6848              LDR      r0,[r1,#4]            ;775
000242  4078              EORS     r0,r0,r7              ;775
000244  6248              STR      r0,[r1,#0x24]         ;775
000246  6a4f              LDR      r7,[r1,#0x24]         ;776
000248  6888              LDR      r0,[r1,#8]            ;776
00024a  4078              EORS     r0,r0,r7              ;776
00024c  6288              STR      r0,[r1,#0x28]         ;776
00024e  6a8f              LDR      r7,[r1,#0x28]         ;777
000250  68c8              LDR      r0,[r1,#0xc]          ;777
000252  4078              EORS     r0,r0,r7              ;777
000254  62c8              STR      r0,[r1,#0x2c]         ;777
000256  1c70              ADDS     r0,r6,#1              ;778
000258  4606              MOV      r6,r0                 ;778
00025a  2807              CMP      r0,#7                 ;778
00025c  d101              BNE      |L5.610|
00025e  2000              MOVS     r0,#0                 ;779
000260  e6d7              B        |L5.18|
                  |L5.610|
000262  6aca              LDR      r2,[r1,#0x2c]         ;781
000264  0e17              LSRS     r7,r2,#24             ;782
000266  f8dfc05c          LDR      r12,|L5.708|
00026a  f85c7027          LDR      r7,[r12,r7,LSL #2]    ;782
00026e  f007477f          AND      r7,r7,#0xff000000     ;782
000272  6908              LDR      r0,[r1,#0x10]         ;782
000274  4078              EORS     r0,r0,r7              ;782
000276  4667              MOV      r7,r12                ;782
000278  f3c24c07          UBFX     r12,r2,#16,#8         ;782
00027c  f857702c          LDR      r7,[r7,r12,LSL #2]    ;782
000280  f407077f          AND      r7,r7,#0xff0000       ;782
000284  4078              EORS     r0,r0,r7              ;782
000286  4f0f              LDR      r7,|L5.708|
000288  f3c22c07          UBFX     r12,r2,#8,#8          ;782
00028c  f837702c          LDRH     r7,[r7,r12,LSL #2]    ;782
000290  f407477f          AND      r7,r7,#0xff00         ;782
000294  4078              EORS     r0,r0,r7              ;782
000296  b2d7              UXTB     r7,r2                 ;782
000298  f8dfc028          LDR      r12,|L5.708|
00029c  f81c7027          LDRB     r7,[r12,r7,LSL #2]    ;782
0002a0  4078              EORS     r0,r0,r7              ;782
0002a2  6308              STR      r0,[r1,#0x30]         ;782
0002a4  6b0f              LDR      r7,[r1,#0x30]         ;787
0002a6  6948              LDR      r0,[r1,#0x14]         ;787
0002a8  4078              EORS     r0,r0,r7              ;787
0002aa  6348              STR      r0,[r1,#0x34]         ;787
0002ac  6b4f              LDR      r7,[r1,#0x34]         ;788
0002ae  6988              LDR      r0,[r1,#0x18]         ;788
0002b0  4078              EORS     r0,r0,r7              ;788
0002b2  6388              STR      r0,[r1,#0x38]         ;788
0002b4  6b8f              LDR      r7,[r1,#0x38]         ;789
0002b6  69c8              LDR      r0,[r1,#0x1c]         ;789
0002b8  4078              EORS     r0,r0,r7              ;789
0002ba  63c8              STR      r0,[r1,#0x3c]         ;789
0002bc  3120              ADDS     r1,r1,#0x20           ;791
                  |L5.702|
0002be  e79b              B        |L5.504|
                  |L5.704|
0002c0  2000              MOVS     r0,#0                 ;794
0002c2  e6a6              B        |L5.18|
;;;796    
                          ENDP

                  |L5.708|
                          DCD      Te4
                  |L5.712|
                          DCD      rcon

                          AREA ||.constdata||, DATA, READONLY, ALIGN=2

                  Te0
                          DCD      0xc66363a5
                          DCD      0xf87c7c84
                          DCD      0xee777799
                          DCD      0xf67b7b8d
                          DCD      0xfff2f20d
                          DCD      0xd66b6bbd
                          DCD      0xde6f6fb1
                          DCD      0x91c5c554
                          DCD      0x60303050
                          DCD      0x02010103
                          DCD      0xce6767a9
                          DCD      0x562b2b7d
                          DCD      0xe7fefe19
                          DCD      0xb5d7d762
                          DCD      0x4dababe6
                          DCD      0xec76769a
                          DCD      0x8fcaca45
                          DCD      0x1f82829d
                          DCD      0x89c9c940
                          DCD      0xfa7d7d87
                          DCD      0xeffafa15
                          DCD      0xb25959eb
                          DCD      0x8e4747c9
                          DCD      0xfbf0f00b
                          DCD      0x41adadec
                          DCD      0xb3d4d467
                          DCD      0x5fa2a2fd
                          DCD      0x45afafea
                          DCD      0x239c9cbf
                          DCD      0x53a4a4f7
                          DCD      0xe4727296
                          DCD      0x9bc0c05b
                          DCD      0x75b7b7c2
                          DCD      0xe1fdfd1c
                          DCD      0x3d9393ae
                          DCD      0x4c26266a
                          DCD      0x6c36365a
                          DCD      0x7e3f3f41
                          DCD      0xf5f7f702
                          DCD      0x83cccc4f
                          DCD      0x6834345c
                          DCD      0x51a5a5f4
                          DCD      0xd1e5e534
                          DCD      0xf9f1f108
                          DCD      0xe2717193
                          DCD      0xabd8d873
                          DCD      0x62313153
                          DCD      0x2a15153f
                          DCD      0x0804040c
                          DCD      0x95c7c752
                          DCD      0x46232365
                          DCD      0x9dc3c35e
                          DCD      0x30181828
                          DCD      0x379696a1
                          DCD      0x0a05050f
                          DCD      0x2f9a9ab5
                          DCD      0x0e070709
                          DCD      0x24121236
                          DCD      0x1b80809b
                          DCD      0xdfe2e23d
                          DCD      0xcdebeb26
                          DCD      0x4e272769
                          DCD      0x7fb2b2cd
                          DCD      0xea75759f
                          DCD      0x1209091b
                          DCD      0x1d83839e
                          DCD      0x582c2c74
                          DCD      0x341a1a2e
                          DCD      0x361b1b2d
                          DCD      0xdc6e6eb2
                          DCD      0xb45a5aee
                          DCD      0x5ba0a0fb
                          DCD      0xa45252f6
                          DCD      0x763b3b4d
                          DCD      0xb7d6d661
                          DCD      0x7db3b3ce
                          DCD      0x5229297b
                          DCD      0xdde3e33e
                          DCD      0x5e2f2f71
                          DCD      0x13848497
                          DCD      0xa65353f5
                          DCD      0xb9d1d168
                          DCD      0x00000000
                          DCD      0xc1eded2c
                          DCD      0x40202060
                          DCD      0xe3fcfc1f
                          DCD      0x79b1b1c8
                          DCD      0xb65b5bed
                          DCD      0xd46a6abe
                          DCD      0x8dcbcb46
                          DCD      0x67bebed9
                          DCD      0x7239394b
                          DCD      0x944a4ade
                          DCD      0x984c4cd4
                          DCD      0xb05858e8
                          DCD      0x85cfcf4a
                          DCD      0xbbd0d06b
                          DCD      0xc5efef2a
                          DCD      0x4faaaae5
                          DCD      0xedfbfb16
                          DCD      0x864343c5
                          DCD      0x9a4d4dd7
                          DCD      0x66333355
                          DCD      0x11858594
                          DCD      0x8a4545cf
                          DCD      0xe9f9f910
                          DCD      0x04020206
                          DCD      0xfe7f7f81
                          DCD      0xa05050f0
                          DCD      0x783c3c44
                          DCD      0x259f9fba
                          DCD      0x4ba8a8e3
                          DCD      0xa25151f3
                          DCD      0x5da3a3fe
                          DCD      0x804040c0
                          DCD      0x058f8f8a
                          DCD      0x3f9292ad
                          DCD      0x219d9dbc
                          DCD      0x70383848
                          DCD      0xf1f5f504
                          DCD      0x63bcbcdf
                          DCD      0x77b6b6c1
                          DCD      0xafdada75
                          DCD      0x42212163
                          DCD      0x20101030
                          DCD      0xe5ffff1a
                          DCD      0xfdf3f30e
                          DCD      0xbfd2d26d
                          DCD      0x81cdcd4c
                          DCD      0x180c0c14
                          DCD      0x26131335
                          DCD      0xc3ecec2f
                          DCD      0xbe5f5fe1
                          DCD      0x359797a2
                          DCD      0x884444cc
                          DCD      0x2e171739
                          DCD      0x93c4c457
                          DCD      0x55a7a7f2
                          DCD      0xfc7e7e82
                          DCD      0x7a3d3d47
                          DCD      0xc86464ac
                          DCD      0xba5d5de7
                          DCD      0x3219192b
                          DCD      0xe6737395
                          DCD      0xc06060a0
                          DCD      0x19818198
                          DCD      0x9e4f4fd1
                          DCD      0xa3dcdc7f
                          DCD      0x44222266
                          DCD      0x542a2a7e
                          DCD      0x3b9090ab
                          DCD      0x0b888883
                          DCD      0x8c4646ca
                          DCD      0xc7eeee29
                          DCD      0x6bb8b8d3
                          DCD      0x2814143c
                          DCD      0xa7dede79
                          DCD      0xbc5e5ee2
                          DCD      0x160b0b1d
                          DCD      0xaddbdb76
                          DCD      0xdbe0e03b
                          DCD      0x64323256
                          DCD      0x743a3a4e
                          DCD      0x140a0a1e
                          DCD      0x924949db
                          DCD      0x0c06060a
                          DCD      0x4824246c
                          DCD      0xb85c5ce4
                          DCD      0x9fc2c25d
                          DCD      0xbdd3d36e
                          DCD      0x43acacef
                          DCD      0xc46262a6
                          DCD      0x399191a8
                          DCD      0x319595a4
                          DCD      0xd3e4e437
                          DCD      0xf279798b
                          DCD      0xd5e7e732
                          DCD      0x8bc8c843
                          DCD      0x6e373759
                          DCD      0xda6d6db7
                          DCD      0x018d8d8c
                          DCD      0xb1d5d564
                          DCD      0x9c4e4ed2
                          DCD      0x49a9a9e0
                          DCD      0xd86c6cb4
                          DCD      0xac5656fa
                          DCD      0xf3f4f407
                          DCD      0xcfeaea25
                          DCD      0xca6565af
                          DCD      0xf47a7a8e
                          DCD      0x47aeaee9
                          DCD      0x10080818
                          DCD      0x6fbabad5
                          DCD      0xf0787888
                          DCD      0x4a25256f
                          DCD      0x5c2e2e72
                          DCD      0x381c1c24
                          DCD      0x57a6a6f1
                          DCD      0x73b4b4c7
                          DCD      0x97c6c651
                          DCD      0xcbe8e823
                          DCD      0xa1dddd7c
                          DCD      0xe874749c
                          DCD      0x3e1f1f21
                          DCD      0x964b4bdd
                          DCD      0x61bdbddc
                          DCD      0x0d8b8b86
                          DCD      0x0f8a8a85
                          DCD      0xe0707090
                          DCD      0x7c3e3e42
                          DCD      0x71b5b5c4
                          DCD      0xcc6666aa
                          DCD      0x904848d8
                          DCD      0x06030305
                          DCD      0xf7f6f601
                          DCD      0x1c0e0e12
                          DCD      0xc26161a3
                          DCD      0x6a35355f
                          DCD      0xae5757f9
                          DCD      0x69b9b9d0
                          DCD      0x17868691
                          DCD      0x99c1c158
                          DCD      0x3a1d1d27
                          DCD      0x279e9eb9
                          DCD      0xd9e1e138
                          DCD      0xebf8f813
                          DCD      0x2b9898b3
                          DCD      0x22111133
                          DCD      0xd26969bb
                          DCD      0xa9d9d970
                          DCD      0x078e8e89
                          DCD      0x339494a7
                          DCD      0x2d9b9bb6
                          DCD      0x3c1e1e22
                          DCD      0x15878792
                          DCD      0xc9e9e920
                          DCD      0x87cece49
                          DCD      0xaa5555ff
                          DCD      0x50282878
                          DCD      0xa5dfdf7a
                          DCD      0x038c8c8f
                          DCD      0x59a1a1f8
                          DCD      0x09898980
                          DCD      0x1a0d0d17
                          DCD      0x65bfbfda
                          DCD      0xd7e6e631
                          DCD      0x844242c6
                          DCD      0xd06868b8
                          DCD      0x824141c3
                          DCD      0x299999b0
                          DCD      0x5a2d2d77
                          DCD      0x1e0f0f11
                          DCD      0x7bb0b0cb
                          DCD      0xa85454fc
                          DCD      0x6dbbbbd6
                          DCD      0x2c16163a
                  Te1
                          DCD      0xa5c66363
                          DCD      0x84f87c7c
                          DCD      0x99ee7777
                          DCD      0x8df67b7b
                          DCD      0x0dfff2f2
                          DCD      0xbdd66b6b
                          DCD      0xb1de6f6f
                          DCD      0x5491c5c5
                          DCD      0x50603030
                          DCD      0x03020101
                          DCD      0xa9ce6767
                          DCD      0x7d562b2b
                          DCD      0x19e7fefe
                          DCD      0x62b5d7d7
                          DCD      0xe64dabab
                          DCD      0x9aec7676
                          DCD      0x458fcaca
                          DCD      0x9d1f8282
                          DCD      0x4089c9c9
                          DCD      0x87fa7d7d
                          DCD      0x15effafa
                          DCD      0xebb25959
                          DCD      0xc98e4747
                          DCD      0x0bfbf0f0
                          DCD      0xec41adad
                          DCD      0x67b3d4d4
                          DCD      0xfd5fa2a2
                          DCD      0xea45afaf
                          DCD      0xbf239c9c
                          DCD      0xf753a4a4
                          DCD      0x96e47272
                          DCD      0x5b9bc0c0
                          DCD      0xc275b7b7
                          DCD      0x1ce1fdfd
                          DCD      0xae3d9393
                          DCD      0x6a4c2626
                          DCD      0x5a6c3636
                          DCD      0x417e3f3f
                          DCD      0x02f5f7f7
                          DCD      0x4f83cccc
                          DCD      0x5c683434
                          DCD      0xf451a5a5
                          DCD      0x34d1e5e5
                          DCD      0x08f9f1f1
                          DCD      0x93e27171
                          DCD      0x73abd8d8
                          DCD      0x53623131
                          DCD      0x3f2a1515
                          DCD      0x0c080404
                          DCD      0x5295c7c7
                          DCD      0x65462323
                          DCD      0x5e9dc3c3
                          DCD      0x28301818
                          DCD      0xa1379696
                          DCD      0x0f0a0505
                          DCD      0xb52f9a9a
                          DCD      0x090e0707
                          DCD      0x36241212
                          DCD      0x9b1b8080
                          DCD      0x3ddfe2e2
                          DCD      0x26cdebeb
                          DCD      0x694e2727
                          DCD      0xcd7fb2b2
                          DCD      0x9fea7575
                          DCD      0x1b120909
                          DCD      0x9e1d8383
                          DCD      0x74582c2c
                          DCD      0x2e341a1a
                          DCD      0x2d361b1b
                          DCD      0xb2dc6e6e
                          DCD      0xeeb45a5a
                          DCD      0xfb5ba0a0
                          DCD      0xf6a45252
                          DCD      0x4d763b3b
                          DCD      0x61b7d6d6
                          DCD      0xce7db3b3
                          DCD      0x7b522929
                          DCD      0x3edde3e3
                          DCD      0x715e2f2f
                          DCD      0x97138484
                          DCD      0xf5a65353
                          DCD      0x68b9d1d1
                          DCD      0x00000000
                          DCD      0x2cc1eded
                          DCD      0x60402020
                          DCD      0x1fe3fcfc
                          DCD      0xc879b1b1
                          DCD      0xedb65b5b
                          DCD      0xbed46a6a
                          DCD      0x468dcbcb
                          DCD      0xd967bebe
                          DCD      0x4b723939
                          DCD      0xde944a4a
                          DCD      0xd4984c4c
                          DCD      0xe8b05858
                          DCD      0x4a85cfcf
                          DCD      0x6bbbd0d0
                          DCD      0x2ac5efef
                          DCD      0xe54faaaa
                          DCD      0x16edfbfb
                          DCD      0xc5864343
                          DCD      0xd79a4d4d
                          DCD      0x55663333
                          DCD      0x94118585
                          DCD      0xcf8a4545
                          DCD      0x10e9f9f9
                          DCD      0x06040202
                          DCD      0x81fe7f7f
                          DCD      0xf0a05050
                          DCD      0x44783c3c
                          DCD      0xba259f9f
                          DCD      0xe34ba8a8
                          DCD      0xf3a25151
                          DCD      0xfe5da3a3
                          DCD      0xc0804040
                          DCD      0x8a058f8f
                          DCD      0xad3f9292
                          DCD      0xbc219d9d
                          DCD      0x48703838
                          DCD      0x04f1f5f5
                          DCD      0xdf63bcbc
                          DCD      0xc177b6b6
                          DCD      0x75afdada
                          DCD      0x63422121
                          DCD      0x30201010
                          DCD      0x1ae5ffff
                          DCD      0x0efdf3f3
                          DCD      0x6dbfd2d2
                          DCD      0x4c81cdcd
                          DCD      0x14180c0c
                          DCD      0x35261313
                          DCD      0x2fc3ecec
                          DCD      0xe1be5f5f
                          DCD      0xa2359797
                          DCD      0xcc884444
                          DCD      0x392e1717
                          DCD      0x5793c4c4
                          DCD      0xf255a7a7
                          DCD      0x82fc7e7e
                          DCD      0x477a3d3d
                          DCD      0xacc86464
                          DCD      0xe7ba5d5d
                          DCD      0x2b321919
                          DCD      0x95e67373
                          DCD      0xa0c06060
                          DCD      0x98198181
                          DCD      0xd19e4f4f
                          DCD      0x7fa3dcdc
                          DCD      0x66442222
                          DCD      0x7e542a2a
                          DCD      0xab3b9090
                          DCD      0x830b8888
                          DCD      0xca8c4646
                          DCD      0x29c7eeee
                          DCD      0xd36bb8b8
                          DCD      0x3c281414
                          DCD      0x79a7dede
                          DCD      0xe2bc5e5e
                          DCD      0x1d160b0b
                          DCD      0x76addbdb
                          DCD      0x3bdbe0e0
                          DCD      0x56643232
                          DCD      0x4e743a3a
                          DCD      0x1e140a0a
                          DCD      0xdb924949
                          DCD      0x0a0c0606
                          DCD      0x6c482424
                          DCD      0xe4b85c5c
                          DCD      0x5d9fc2c2
                          DCD      0x6ebdd3d3
                          DCD      0xef43acac
                          DCD      0xa6c46262
                          DCD      0xa8399191
                          DCD      0xa4319595
                          DCD      0x37d3e4e4
                          DCD      0x8bf27979
                          DCD      0x32d5e7e7
                          DCD      0x438bc8c8
                          DCD      0x596e3737
                          DCD      0xb7da6d6d
                          DCD      0x8c018d8d
                          DCD      0x64b1d5d5
                          DCD      0xd29c4e4e
                          DCD      0xe049a9a9
                          DCD      0xb4d86c6c
                          DCD      0xfaac5656
                          DCD      0x07f3f4f4
                          DCD      0x25cfeaea
                          DCD      0xafca6565
                          DCD      0x8ef47a7a
                          DCD      0xe947aeae
                          DCD      0x18100808
                          DCD      0xd56fbaba
                          DCD      0x88f07878
                          DCD      0x6f4a2525
                          DCD      0x725c2e2e
                          DCD      0x24381c1c
                          DCD      0xf157a6a6
                          DCD      0xc773b4b4
                          DCD      0x5197c6c6
                          DCD      0x23cbe8e8
                          DCD      0x7ca1dddd
                          DCD      0x9ce87474
                          DCD      0x213e1f1f
                          DCD      0xdd964b4b
                          DCD      0xdc61bdbd
                          DCD      0x860d8b8b
                          DCD      0x850f8a8a
                          DCD      0x90e07070
                          DCD      0x427c3e3e
                          DCD      0xc471b5b5
                          DCD      0xaacc6666
                          DCD      0xd8904848
                          DCD      0x05060303
                          DCD      0x01f7f6f6
                          DCD      0x121c0e0e
                          DCD      0xa3c26161
                          DCD      0x5f6a3535
                          DCD      0xf9ae5757
                          DCD      0xd069b9b9
                          DCD      0x91178686
                          DCD      0x5899c1c1
                          DCD      0x273a1d1d
                          DCD      0xb9279e9e
                          DCD      0x38d9e1e1
                          DCD      0x13ebf8f8
                          DCD      0xb32b9898
                          DCD      0x33221111
                          DCD      0xbbd26969
                          DCD      0x70a9d9d9
                          DCD      0x89078e8e
                          DCD      0xa7339494
                          DCD      0xb62d9b9b
                          DCD      0x223c1e1e
                          DCD      0x92158787
                          DCD      0x20c9e9e9
                          DCD      0x4987cece
                          DCD      0xffaa5555
                          DCD      0x78502828
                          DCD      0x7aa5dfdf
                          DCD      0x8f038c8c
                          DCD      0xf859a1a1
                          DCD      0x80098989
                          DCD      0x171a0d0d
                          DCD      0xda65bfbf
                          DCD      0x31d7e6e6
                          DCD      0xc6844242
                          DCD      0xb8d06868
                          DCD      0xc3824141
                          DCD      0xb0299999
                          DCD      0x775a2d2d
                          DCD      0x111e0f0f
                          DCD      0xcb7bb0b0
                          DCD      0xfca85454
                          DCD      0xd66dbbbb
                          DCD      0x3a2c1616
                  Te2
                          DCD      0x63a5c663
                          DCD      0x7c84f87c
                          DCD      0x7799ee77
                          DCD      0x7b8df67b
                          DCD      0xf20dfff2
                          DCD      0x6bbdd66b
                          DCD      0x6fb1de6f
                          DCD      0xc55491c5
                          DCD      0x30506030
                          DCD      0x01030201
                          DCD      0x67a9ce67
                          DCD      0x2b7d562b
                          DCD      0xfe19e7fe
                          DCD      0xd762b5d7
                          DCD      0xabe64dab
                          DCD      0x769aec76
                          DCD      0xca458fca
                          DCD      0x829d1f82
                          DCD      0xc94089c9
                          DCD      0x7d87fa7d
                          DCD      0xfa15effa
                          DCD      0x59ebb259
                          DCD      0x47c98e47
                          DCD      0xf00bfbf0
                          DCD      0xadec41ad
                          DCD      0xd467b3d4
                          DCD      0xa2fd5fa2
                          DCD      0xafea45af
                          DCD      0x9cbf239c
                          DCD      0xa4f753a4
                          DCD      0x7296e472
                          DCD      0xc05b9bc0
                          DCD      0xb7c275b7
                          DCD      0xfd1ce1fd
                          DCD      0x93ae3d93
                          DCD      0x266a4c26
                          DCD      0x365a6c36
                          DCD      0x3f417e3f
                          DCD      0xf702f5f7
                          DCD      0xcc4f83cc
                          DCD      0x345c6834
                          DCD      0xa5f451a5
                          DCD      0xe534d1e5
                          DCD      0xf108f9f1
                          DCD      0x7193e271
                          DCD      0xd873abd8
                          DCD      0x31536231
                          DCD      0x153f2a15
                          DCD      0x040c0804
                          DCD      0xc75295c7
                          DCD      0x23654623
                          DCD      0xc35e9dc3
                          DCD      0x18283018
                          DCD      0x96a13796
                          DCD      0x050f0a05
                          DCD      0x9ab52f9a
                          DCD      0x07090e07
                          DCD      0x12362412
                          DCD      0x809b1b80
                          DCD      0xe23ddfe2
                          DCD      0xeb26cdeb
                          DCD      0x27694e27
                          DCD      0xb2cd7fb2
                          DCD      0x759fea75
                          DCD      0x091b1209
                          DCD      0x839e1d83
                          DCD      0x2c74582c
                          DCD      0x1a2e341a
                          DCD      0x1b2d361b
                          DCD      0x6eb2dc6e
                          DCD      0x5aeeb45a
                          DCD      0xa0fb5ba0
                          DCD      0x52f6a452
                          DCD      0x3b4d763b
                          DCD      0xd661b7d6
                          DCD      0xb3ce7db3
                          DCD      0x297b5229
                          DCD      0xe33edde3
                          DCD      0x2f715e2f
                          DCD      0x84971384
                          DCD      0x53f5a653
                          DCD      0xd168b9d1
                          DCD      0x00000000
                          DCD      0xed2cc1ed
                          DCD      0x20604020
                          DCD      0xfc1fe3fc
                          DCD      0xb1c879b1
                          DCD      0x5bedb65b
                          DCD      0x6abed46a
                          DCD      0xcb468dcb
                          DCD      0xbed967be
                          DCD      0x394b7239
                          DCD      0x4ade944a
                          DCD      0x4cd4984c
                          DCD      0x58e8b058
                          DCD      0xcf4a85cf
                          DCD      0xd06bbbd0
                          DCD      0xef2ac5ef
                          DCD      0xaae54faa
                          DCD      0xfb16edfb
                          DCD      0x43c58643
                          DCD      0x4dd79a4d
                          DCD      0x33556633
                          DCD      0x85941185
                          DCD      0x45cf8a45
                          DCD      0xf910e9f9
                          DCD      0x02060402
                          DCD      0x7f81fe7f
                          DCD      0x50f0a050
                          DCD      0x3c44783c
                          DCD      0x9fba259f
                          DCD      0xa8e34ba8
                          DCD      0x51f3a251
                          DCD      0xa3fe5da3
                          DCD      0x40c08040
                          DCD      0x8f8a058f
                          DCD      0x92ad3f92
                          DCD      0x9dbc219d
                          DCD      0x38487038
                          DCD      0xf504f1f5
                          DCD      0xbcdf63bc
                          DCD      0xb6c177b6
                          DCD      0xda75afda
                          DCD      0x21634221
                          DCD      0x10302010
                          DCD      0xff1ae5ff
                          DCD      0xf30efdf3
                          DCD      0xd26dbfd2
                          DCD      0xcd4c81cd
                          DCD      0x0c14180c
                          DCD      0x13352613
                          DCD      0xec2fc3ec
                          DCD      0x5fe1be5f
                          DCD      0x97a23597
                          DCD      0x44cc8844
                          DCD      0x17392e17
                          DCD      0xc45793c4
                          DCD      0xa7f255a7
                          DCD      0x7e82fc7e
                          DCD      0x3d477a3d
                          DCD      0x64acc864
                          DCD      0x5de7ba5d
                          DCD      0x192b3219
                          DCD      0x7395e673
                          DCD      0x60a0c060
                          DCD      0x81981981
                          DCD      0x4fd19e4f
                          DCD      0xdc7fa3dc
                          DCD      0x22664422
                          DCD      0x2a7e542a
                          DCD      0x90ab3b90
                          DCD      0x88830b88
                          DCD      0x46ca8c46
                          DCD      0xee29c7ee
                          DCD      0xb8d36bb8
                          DCD      0x143c2814
                          DCD      0xde79a7de
                          DCD      0x5ee2bc5e
                          DCD      0x0b1d160b
                          DCD      0xdb76addb
                          DCD      0xe03bdbe0
                          DCD      0x32566432
                          DCD      0x3a4e743a
                          DCD      0x0a1e140a
                          DCD      0x49db9249
                          DCD      0x060a0c06
                          DCD      0x246c4824
                          DCD      0x5ce4b85c
                          DCD      0xc25d9fc2
                          DCD      0xd36ebdd3
                          DCD      0xacef43ac
                          DCD      0x62a6c462
                          DCD      0x91a83991
                          DCD      0x95a43195
                          DCD      0xe437d3e4
                          DCD      0x798bf279
                          DCD      0xe732d5e7
                          DCD      0xc8438bc8
                          DCD      0x37596e37
                          DCD      0x6db7da6d
                          DCD      0x8d8c018d
                          DCD      0xd564b1d5
                          DCD      0x4ed29c4e
                          DCD      0xa9e049a9
                          DCD      0x6cb4d86c
                          DCD      0x56faac56
                          DCD      0xf407f3f4
                          DCD      0xea25cfea
                          DCD      0x65afca65
                          DCD      0x7a8ef47a
                          DCD      0xaee947ae
                          DCD      0x08181008
                          DCD      0xbad56fba
                          DCD      0x7888f078
                          DCD      0x256f4a25
                          DCD      0x2e725c2e
                          DCD      0x1c24381c
                          DCD      0xa6f157a6
                          DCD      0xb4c773b4
                          DCD      0xc65197c6
                          DCD      0xe823cbe8
                          DCD      0xdd7ca1dd
                          DCD      0x749ce874
                          DCD      0x1f213e1f
                          DCD      0x4bdd964b
                          DCD      0xbddc61bd
                          DCD      0x8b860d8b
                          DCD      0x8a850f8a
                          DCD      0x7090e070
                          DCD      0x3e427c3e
                          DCD      0xb5c471b5
                          DCD      0x66aacc66
                          DCD      0x48d89048
                          DCD      0x03050603
                          DCD      0xf601f7f6
                          DCD      0x0e121c0e
                          DCD      0x61a3c261
                          DCD      0x355f6a35
                          DCD      0x57f9ae57
                          DCD      0xb9d069b9
                          DCD      0x86911786
                          DCD      0xc15899c1
                          DCD      0x1d273a1d
                          DCD      0x9eb9279e
                          DCD      0xe138d9e1
                          DCD      0xf813ebf8
                          DCD      0x98b32b98
                          DCD      0x11332211
                          DCD      0x69bbd269
                          DCD      0xd970a9d9
                          DCD      0x8e89078e
                          DCD      0x94a73394
                          DCD      0x9bb62d9b
                          DCD      0x1e223c1e
                          DCD      0x87921587
                          DCD      0xe920c9e9
                          DCD      0xce4987ce
                          DCD      0x55ffaa55
                          DCD      0x28785028
                          DCD      0xdf7aa5df
                          DCD      0x8c8f038c
                          DCD      0xa1f859a1
                          DCD      0x89800989
                          DCD      0x0d171a0d
                          DCD      0xbfda65bf
                          DCD      0xe631d7e6
                          DCD      0x42c68442
                          DCD      0x68b8d068
                          DCD      0x41c38241
                          DCD      0x99b02999
                          DCD      0x2d775a2d
                          DCD      0x0f111e0f
                          DCD      0xb0cb7bb0
                          DCD      0x54fca854
                          DCD      0xbbd66dbb
                          DCD      0x163a2c16
                  Te3
                          DCD      0x6363a5c6
                          DCD      0x7c7c84f8
                          DCD      0x777799ee
                          DCD      0x7b7b8df6
                          DCD      0xf2f20dff
                          DCD      0x6b6bbdd6
                          DCD      0x6f6fb1de
                          DCD      0xc5c55491
                          DCD      0x30305060
                          DCD      0x01010302
                          DCD      0x6767a9ce
                          DCD      0x2b2b7d56
                          DCD      0xfefe19e7
                          DCD      0xd7d762b5
                          DCD      0xababe64d
                          DCD      0x76769aec
                          DCD      0xcaca458f
                          DCD      0x82829d1f
                          DCD      0xc9c94089
                          DCD      0x7d7d87fa
                          DCD      0xfafa15ef
                          DCD      0x5959ebb2
                          DCD      0x4747c98e
                          DCD      0xf0f00bfb
                          DCD      0xadadec41
                          DCD      0xd4d467b3
                          DCD      0xa2a2fd5f
                          DCD      0xafafea45
                          DCD      0x9c9cbf23
                          DCD      0xa4a4f753
                          DCD      0x727296e4
                          DCD      0xc0c05b9b
                          DCD      0xb7b7c275
                          DCD      0xfdfd1ce1
                          DCD      0x9393ae3d
                          DCD      0x26266a4c
                          DCD      0x36365a6c
                          DCD      0x3f3f417e
                          DCD      0xf7f702f5
                          DCD      0xcccc4f83
                          DCD      0x34345c68
                          DCD      0xa5a5f451
                          DCD      0xe5e534d1
                          DCD      0xf1f108f9
                          DCD      0x717193e2
                          DCD      0xd8d873ab
                          DCD      0x31315362
                          DCD      0x15153f2a
                          DCD      0x04040c08
                          DCD      0xc7c75295
                          DCD      0x23236546
                          DCD      0xc3c35e9d
                          DCD      0x18182830
                          DCD      0x9696a137
                          DCD      0x05050f0a
                          DCD      0x9a9ab52f
                          DCD      0x0707090e
                          DCD      0x12123624
                          DCD      0x80809b1b
                          DCD      0xe2e23ddf
                          DCD      0xebeb26cd
                          DCD      0x2727694e
                          DCD      0xb2b2cd7f
                          DCD      0x75759fea
                          DCD      0x09091b12
                          DCD      0x83839e1d
                          DCD      0x2c2c7458
                          DCD      0x1a1a2e34
                          DCD      0x1b1b2d36
                          DCD      0x6e6eb2dc
                          DCD      0x5a5aeeb4
                          DCD      0xa0a0fb5b
                          DCD      0x5252f6a4
                          DCD      0x3b3b4d76
                          DCD      0xd6d661b7
                          DCD      0xb3b3ce7d
                          DCD      0x29297b52
                          DCD      0xe3e33edd
                          DCD      0x2f2f715e
                          DCD      0x84849713
                          DCD      0x5353f5a6
                          DCD      0xd1d168b9
                          DCD      0x00000000
                          DCD      0xeded2cc1
                          DCD      0x20206040
                          DCD      0xfcfc1fe3
                          DCD      0xb1b1c879
                          DCD      0x5b5bedb6
                          DCD      0x6a6abed4
                          DCD      0xcbcb468d
                          DCD      0xbebed967
                          DCD      0x39394b72
                          DCD      0x4a4ade94
                          DCD      0x4c4cd498
                          DCD      0x5858e8b0
                          DCD      0xcfcf4a85
                          DCD      0xd0d06bbb
                          DCD      0xefef2ac5
                          DCD      0xaaaae54f
                          DCD      0xfbfb16ed
                          DCD      0x4343c586
                          DCD      0x4d4dd79a
                          DCD      0x33335566
                          DCD      0x85859411
                          DCD      0x4545cf8a
                          DCD      0xf9f910e9
                          DCD      0x02020604
                          DCD      0x7f7f81fe
                          DCD      0x5050f0a0
                          DCD      0x3c3c4478
                          DCD      0x9f9fba25
                          DCD      0xa8a8e34b
                          DCD      0x5151f3a2
                          DCD      0xa3a3fe5d
                          DCD      0x4040c080
                          DCD      0x8f8f8a05
                          DCD      0x9292ad3f
                          DCD      0x9d9dbc21
                          DCD      0x38384870
                          DCD      0xf5f504f1
                          DCD      0xbcbcdf63
                          DCD      0xb6b6c177
                          DCD      0xdada75af
                          DCD      0x21216342
                          DCD      0x10103020
                          DCD      0xffff1ae5
                          DCD      0xf3f30efd
                          DCD      0xd2d26dbf
                          DCD      0xcdcd4c81
                          DCD      0x0c0c1418
                          DCD      0x13133526
                          DCD      0xecec2fc3
                          DCD      0x5f5fe1be
                          DCD      0x9797a235
                          DCD      0x4444cc88
                          DCD      0x1717392e
                          DCD      0xc4c45793
                          DCD      0xa7a7f255
                          DCD      0x7e7e82fc
                          DCD      0x3d3d477a
                          DCD      0x6464acc8
                          DCD      0x5d5de7ba
                          DCD      0x19192b32
                          DCD      0x737395e6
                          DCD      0x6060a0c0
                          DCD      0x81819819
                          DCD      0x4f4fd19e
                          DCD      0xdcdc7fa3
                          DCD      0x22226644
                          DCD      0x2a2a7e54
                          DCD      0x9090ab3b
                          DCD      0x8888830b
                          DCD      0x4646ca8c
                          DCD      0xeeee29c7
                          DCD      0xb8b8d36b
                          DCD      0x14143c28
                          DCD      0xdede79a7
                          DCD      0x5e5ee2bc
                          DCD      0x0b0b1d16
                          DCD      0xdbdb76ad
                          DCD      0xe0e03bdb
                          DCD      0x32325664
                          DCD      0x3a3a4e74
                          DCD      0x0a0a1e14
                          DCD      0x4949db92
                          DCD      0x06060a0c
                          DCD      0x24246c48
                          DCD      0x5c5ce4b8
                          DCD      0xc2c25d9f
                          DCD      0xd3d36ebd
                          DCD      0xacacef43
                          DCD      0x6262a6c4
                          DCD      0x9191a839
                          DCD      0x9595a431
                          DCD      0xe4e437d3
                          DCD      0x79798bf2
                          DCD      0xe7e732d5
                          DCD      0xc8c8438b
                          DCD      0x3737596e
                          DCD      0x6d6db7da
                          DCD      0x8d8d8c01
                          DCD      0xd5d564b1
                          DCD      0x4e4ed29c
                          DCD      0xa9a9e049
                          DCD      0x6c6cb4d8
                          DCD      0x5656faac
                          DCD      0xf4f407f3
                          DCD      0xeaea25cf
                          DCD      0x6565afca
                          DCD      0x7a7a8ef4
                          DCD      0xaeaee947
                          DCD      0x08081810
                          DCD      0xbabad56f
                          DCD      0x787888f0
                          DCD      0x25256f4a
                          DCD      0x2e2e725c
                          DCD      0x1c1c2438
                          DCD      0xa6a6f157
                          DCD      0xb4b4c773
                          DCD      0xc6c65197
                          DCD      0xe8e823cb
                          DCD      0xdddd7ca1
                          DCD      0x74749ce8
                          DCD      0x1f1f213e
                          DCD      0x4b4bdd96
                          DCD      0xbdbddc61
                          DCD      0x8b8b860d
                          DCD      0x8a8a850f
                          DCD      0x707090e0
                          DCD      0x3e3e427c
                          DCD      0xb5b5c471
                          DCD      0x6666aacc
                          DCD      0x4848d890
                          DCD      0x03030506
                          DCD      0xf6f601f7
                          DCD      0x0e0e121c
                          DCD      0x6161a3c2
                          DCD      0x35355f6a
                          DCD      0x5757f9ae
                          DCD      0xb9b9d069
                          DCD      0x86869117
                          DCD      0xc1c15899
                          DCD      0x1d1d273a
                          DCD      0x9e9eb927
                          DCD      0xe1e138d9
                          DCD      0xf8f813eb
                          DCD      0x9898b32b
                          DCD      0x11113322
                          DCD      0x6969bbd2
                          DCD      0xd9d970a9
                          DCD      0x8e8e8907
                          DCD      0x9494a733
                          DCD      0x9b9bb62d
                          DCD      0x1e1e223c
                          DCD      0x87879215
                          DCD      0xe9e920c9
                          DCD      0xcece4987
                          DCD      0x5555ffaa
                          DCD      0x28287850
                          DCD      0xdfdf7aa5
                          DCD      0x8c8c8f03
                          DCD      0xa1a1f859
                          DCD      0x89898009
                          DCD      0x0d0d171a
                          DCD      0xbfbfda65
                          DCD      0xe6e631d7
                          DCD      0x4242c684
                          DCD      0x6868b8d0
                          DCD      0x4141c382
                          DCD      0x9999b029
                          DCD      0x2d2d775a
                          DCD      0x0f0f111e
                          DCD      0xb0b0cb7b
                          DCD      0x5454fca8
                          DCD      0xbbbbd66d
                          DCD      0x16163a2c
                  Te4
                          DCD      0x63636363
                          DCD      0x7c7c7c7c
                          DCD      0x77777777
                          DCD      0x7b7b7b7b
                          DCD      0xf2f2f2f2
                          DCD      0x6b6b6b6b
                          DCD      0x6f6f6f6f
                          DCD      0xc5c5c5c5
                          DCD      0x30303030
                          DCD      0x01010101
                          DCD      0x67676767
                          DCD      0x2b2b2b2b
                          DCD      0xfefefefe
                          DCD      0xd7d7d7d7
                          DCD      0xabababab
                          DCD      0x76767676
                          DCD      0xcacacaca
                          DCD      0x82828282
                          DCD      0xc9c9c9c9
                          DCD      0x7d7d7d7d
                          DCD      0xfafafafa
                          DCD      0x59595959
                          DCD      0x47474747
                          DCD      0xf0f0f0f0
                          DCD      0xadadadad
                          DCD      0xd4d4d4d4
                          DCD      0xa2a2a2a2
                          DCD      0xafafafaf
                          DCD      0x9c9c9c9c
                          DCD      0xa4a4a4a4
                          DCD      0x72727272
                          DCD      0xc0c0c0c0
                          DCD      0xb7b7b7b7
                          DCD      0xfdfdfdfd
                          DCD      0x93939393
                          DCD      0x26262626
                          DCD      0x36363636
                          DCD      0x3f3f3f3f
                          DCD      0xf7f7f7f7
                          DCD      0xcccccccc
                          DCD      0x34343434
                          DCD      0xa5a5a5a5
                          DCD      0xe5e5e5e5
                          DCD      0xf1f1f1f1
                          DCD      0x71717171
                          DCD      0xd8d8d8d8
                          DCD      0x31313131
                          DCD      0x15151515
                          DCD      0x04040404
                          DCD      0xc7c7c7c7
                          DCD      0x23232323
                          DCD      0xc3c3c3c3
                          DCD      0x18181818
                          DCD      0x96969696
                          DCD      0x05050505
                          DCD      0x9a9a9a9a
                          DCD      0x07070707
                          DCD      0x12121212
                          DCD      0x80808080
                          DCD      0xe2e2e2e2
                          DCD      0xebebebeb
                          DCD      0x27272727
                          DCD      0xb2b2b2b2
                          DCD      0x75757575
                          DCD      0x09090909
                          DCD      0x83838383
                          DCD      0x2c2c2c2c
                          DCD      0x1a1a1a1a
                          DCD      0x1b1b1b1b
                          DCD      0x6e6e6e6e
                          DCD      0x5a5a5a5a
                          DCD      0xa0a0a0a0
                          DCD      0x52525252
                          DCD      0x3b3b3b3b
                          DCD      0xd6d6d6d6
                          DCD      0xb3b3b3b3
                          DCD      0x29292929
                          DCD      0xe3e3e3e3
                          DCD      0x2f2f2f2f
                          DCD      0x84848484
                          DCD      0x53535353
                          DCD      0xd1d1d1d1
                          DCD      0x00000000
                          DCD      0xedededed
                          DCD      0x20202020
                          DCD      0xfcfcfcfc
                          DCD      0xb1b1b1b1
                          DCD      0x5b5b5b5b
                          DCD      0x6a6a6a6a
                          DCD      0xcbcbcbcb
                          DCD      0xbebebebe
                          DCD      0x39393939
                          DCD      0x4a4a4a4a
                          DCD      0x4c4c4c4c
                          DCD      0x58585858
                          DCD      0xcfcfcfcf
                          DCD      0xd0d0d0d0
                          DCD      0xefefefef
                          DCD      0xaaaaaaaa
                          DCD      0xfbfbfbfb
                          DCD      0x43434343
                          DCD      0x4d4d4d4d
                          DCD      0x33333333
                          DCD      0x85858585
                          DCD      0x45454545
                          DCD      0xf9f9f9f9
                          DCD      0x02020202
                          DCD      0x7f7f7f7f
                          DCD      0x50505050
                          DCD      0x3c3c3c3c
                          DCD      0x9f9f9f9f
                          DCD      0xa8a8a8a8
                          DCD      0x51515151
                          DCD      0xa3a3a3a3
                          DCD      0x40404040
                          DCD      0x8f8f8f8f
                          DCD      0x92929292
                          DCD      0x9d9d9d9d
                          DCD      0x38383838
                          DCD      0xf5f5f5f5
                          DCD      0xbcbcbcbc
                          DCD      0xb6b6b6b6
                          DCD      0xdadadada
                          DCD      0x21212121
                          DCD      0x10101010
                          DCD      0xffffffff
                          DCD      0xf3f3f3f3
                          DCD      0xd2d2d2d2
                          DCD      0xcdcdcdcd
                          DCD      0x0c0c0c0c
                          DCD      0x13131313
                          DCD      0xecececec
                          DCD      0x5f5f5f5f
                          DCD      0x97979797
                          DCD      0x44444444
                          DCD      0x17171717
                          DCD      0xc4c4c4c4
                          DCD      0xa7a7a7a7
                          DCD      0x7e7e7e7e
                          DCD      0x3d3d3d3d
                          DCD      0x64646464
                          DCD      0x5d5d5d5d
                          DCD      0x19191919
                          DCD      0x73737373
                          DCD      0x60606060
                          DCD      0x81818181
                          DCD      0x4f4f4f4f
                          DCD      0xdcdcdcdc
                          DCD      0x22222222
                          DCD      0x2a2a2a2a
                          DCD      0x90909090
                          DCD      0x88888888
                          DCD      0x46464646
                          DCD      0xeeeeeeee
                          DCD      0xb8b8b8b8
                          DCD      0x14141414
                          DCD      0xdededede
                          DCD      0x5e5e5e5e
                          DCD      0x0b0b0b0b
                          DCD      0xdbdbdbdb
                          DCD      0xe0e0e0e0
                          DCD      0x32323232
                          DCD      0x3a3a3a3a
                          DCD      0x0a0a0a0a
                          DCD      0x49494949
                          DCD      0x06060606
                          DCD      0x24242424
                          DCD      0x5c5c5c5c
                          DCD      0xc2c2c2c2
                          DCD      0xd3d3d3d3
                          DCD      0xacacacac
                          DCD      0x62626262
                          DCD      0x91919191
                          DCD      0x95959595
                          DCD      0xe4e4e4e4
                          DCD      0x79797979
                          DCD      0xe7e7e7e7
                          DCD      0xc8c8c8c8
                          DCD      0x37373737
                          DCD      0x6d6d6d6d
                          DCD      0x8d8d8d8d
                          DCD      0xd5d5d5d5
                          DCD      0x4e4e4e4e
                          DCD      0xa9a9a9a9
                          DCD      0x6c6c6c6c
                          DCD      0x56565656
                          DCD      0xf4f4f4f4
                          DCD      0xeaeaeaea
                          DCD      0x65656565
                          DCD      0x7a7a7a7a
                          DCD      0xaeaeaeae
                          DCD      0x08080808
                          DCD      0xbabababa
                          DCD      0x78787878
                          DCD      0x25252525
                          DCD      0x2e2e2e2e
                          DCD      0x1c1c1c1c
                          DCD      0xa6a6a6a6
                          DCD      0xb4b4b4b4
                          DCD      0xc6c6c6c6
                          DCD      0xe8e8e8e8
                          DCD      0xdddddddd
                          DCD      0x74747474
                          DCD      0x1f1f1f1f
                          DCD      0x4b4b4b4b
                          DCD      0xbdbdbdbd
                          DCD      0x8b8b8b8b
                          DCD      0x8a8a8a8a
                          DCD      0x70707070
                          DCD      0x3e3e3e3e
                          DCD      0xb5b5b5b5
                          DCD      0x66666666
                          DCD      0x48484848
                          DCD      0x03030303
                          DCD      0xf6f6f6f6
                          DCD      0x0e0e0e0e
                          DCD      0x61616161
                          DCD      0x35353535
                          DCD      0x57575757
                          DCD      0xb9b9b9b9
                          DCD      0x86868686
                          DCD      0xc1c1c1c1
                          DCD      0x1d1d1d1d
                          DCD      0x9e9e9e9e
                          DCD      0xe1e1e1e1
                          DCD      0xf8f8f8f8
                          DCD      0x98989898
                          DCD      0x11111111
                          DCD      0x69696969
                          DCD      0xd9d9d9d9
                          DCD      0x8e8e8e8e
                          DCD      0x94949494
                          DCD      0x9b9b9b9b
                          DCD      0x1e1e1e1e
                          DCD      0x87878787
                          DCD      0xe9e9e9e9
                          DCD      0xcececece
                          DCD      0x55555555
                          DCD      0x28282828
                          DCD      0xdfdfdfdf
                          DCD      0x8c8c8c8c
                          DCD      0xa1a1a1a1
                          DCD      0x89898989
                          DCD      0x0d0d0d0d
                          DCD      0xbfbfbfbf
                          DCD      0xe6e6e6e6
                          DCD      0x42424242
                          DCD      0x68686868
                          DCD      0x41414141
                          DCD      0x99999999
                          DCD      0x2d2d2d2d
                          DCD      0x0f0f0f0f
                          DCD      0xb0b0b0b0
                          DCD      0x54545454
                          DCD      0xbbbbbbbb
                          DCD      0x16161616
                  Td0
                          DCD      0x51f4a750
                          DCD      0x7e416553
                          DCD      0x1a17a4c3
                          DCD      0x3a275e96
                          DCD      0x3bab6bcb
                          DCD      0x1f9d45f1
                          DCD      0xacfa58ab
                          DCD      0x4be30393
                          DCD      0x2030fa55
                          DCD      0xad766df6
                          DCD      0x88cc7691
                          DCD      0xf5024c25
                          DCD      0x4fe5d7fc
                          DCD      0xc52acbd7
                          DCD      0x26354480
                          DCD      0xb562a38f
                          DCD      0xdeb15a49
                          DCD      0x25ba1b67
                          DCD      0x45ea0e98
                          DCD      0x5dfec0e1
                          DCD      0xc32f7502
                          DCD      0x814cf012
                          DCD      0x8d4697a3
                          DCD      0x6bd3f9c6
                          DCD      0x038f5fe7
                          DCD      0x15929c95
                          DCD      0xbf6d7aeb
                          DCD      0x955259da
                          DCD      0xd4be832d
                          DCD      0x587421d3
                          DCD      0x49e06929
                          DCD      0x8ec9c844
                          DCD      0x75c2896a
                          DCD      0xf48e7978
                          DCD      0x99583e6b
                          DCD      0x27b971dd
                          DCD      0xbee14fb6
                          DCD      0xf088ad17
                          DCD      0xc920ac66
                          DCD      0x7dce3ab4
                          DCD      0x63df4a18
                          DCD      0xe51a3182
                          DCD      0x97513360
                          DCD      0x62537f45
                          DCD      0xb16477e0
                          DCD      0xbb6bae84
                          DCD      0xfe81a01c
                          DCD      0xf9082b94
                          DCD      0x70486858
                          DCD      0x8f45fd19
                          DCD      0x94de6c87
                          DCD      0x527bf8b7
                          DCD      0xab73d323
                          DCD      0x724b02e2
                          DCD      0xe31f8f57
                          DCD      0x6655ab2a
                          DCD      0xb2eb2807
                          DCD      0x2fb5c203
                          DCD      0x86c57b9a
                          DCD      0xd33708a5
                          DCD      0x302887f2
                          DCD      0x23bfa5b2
                          DCD      0x02036aba
                          DCD      0xed16825c
                          DCD      0x8acf1c2b
                          DCD      0xa779b492
                          DCD      0xf307f2f0
                          DCD      0x4e69e2a1
                          DCD      0x65daf4cd
                          DCD      0x0605bed5
                          DCD      0xd134621f
                          DCD      0xc4a6fe8a
                          DCD      0x342e539d
                          DCD      0xa2f355a0
                          DCD      0x058ae132
                          DCD      0xa4f6eb75
                          DCD      0x0b83ec39
                          DCD      0x4060efaa
                          DCD      0x5e719f06
                          DCD      0xbd6e1051
                          DCD      0x3e218af9
                          DCD      0x96dd063d
                          DCD      0xdd3e05ae
                          DCD      0x4de6bd46
                          DCD      0x91548db5
                          DCD      0x71c45d05
                          DCD      0x0406d46f
                          DCD      0x605015ff
                          DCD      0x1998fb24
                          DCD      0xd6bde997
                          DCD      0x894043cc
                          DCD      0x67d99e77
                          DCD      0xb0e842bd
                          DCD      0x07898b88
                          DCD      0xe7195b38
                          DCD      0x79c8eedb
                          DCD      0xa17c0a47
                          DCD      0x7c420fe9
                          DCD      0xf8841ec9
                          DCD      0x00000000
                          DCD      0x09808683
                          DCD      0x322bed48
                          DCD      0x1e1170ac
                          DCD      0x6c5a724e
                          DCD      0xfd0efffb
                          DCD      0x0f853856
                          DCD      0x3daed51e
                          DCD      0x362d3927
                          DCD      0x0a0fd964
                          DCD      0x685ca621
                          DCD      0x9b5b54d1
                          DCD      0x24362e3a
                          DCD      0x0c0a67b1
                          DCD      0x9357e70f
                          DCD      0xb4ee96d2
                          DCD      0x1b9b919e
                          DCD      0x80c0c54f
                          DCD      0x61dc20a2
                          DCD      0x5a774b69
                          DCD      0x1c121a16
                          DCD      0xe293ba0a
                          DCD      0xc0a02ae5
                          DCD      0x3c22e043
                          DCD      0x121b171d
                          DCD      0x0e090d0b
                          DCD      0xf28bc7ad
                          DCD      0x2db6a8b9
                          DCD      0x141ea9c8
                          DCD      0x57f11985
                          DCD      0xaf75074c
                          DCD      0xee99ddbb
                          DCD      0xa37f60fd
                          DCD      0xf701269f
                          DCD      0x5c72f5bc
                          DCD      0x44663bc5
                          DCD      0x5bfb7e34
                          DCD      0x8b432976
                          DCD      0xcb23c6dc
                          DCD      0xb6edfc68
                          DCD      0xb8e4f163
                          DCD      0xd731dcca
                          DCD      0x42638510
                          DCD      0x13972240
                          DCD      0x84c61120
                          DCD      0x854a247d
                          DCD      0xd2bb3df8
                          DCD      0xaef93211
                          DCD      0xc729a16d
                          DCD      0x1d9e2f4b
                          DCD      0xdcb230f3
                          DCD      0x0d8652ec
                          DCD      0x77c1e3d0
                          DCD      0x2bb3166c
                          DCD      0xa970b999
                          DCD      0x119448fa
                          DCD      0x47e96422
                          DCD      0xa8fc8cc4
                          DCD      0xa0f03f1a
                          DCD      0x567d2cd8
                          DCD      0x223390ef
                          DCD      0x87494ec7
                          DCD      0xd938d1c1
                          DCD      0x8ccaa2fe
                          DCD      0x98d40b36
                          DCD      0xa6f581cf
                          DCD      0xa57ade28
                          DCD      0xdab78e26
                          DCD      0x3fadbfa4
                          DCD      0x2c3a9de4
                          DCD      0x5078920d
                          DCD      0x6a5fcc9b
                          DCD      0x547e4662
                          DCD      0xf68d13c2
                          DCD      0x90d8b8e8
                          DCD      0x2e39f75e
                          DCD      0x82c3aff5
                          DCD      0x9f5d80be
                          DCD      0x69d0937c
                          DCD      0x6fd52da9
                          DCD      0xcf2512b3
                          DCD      0xc8ac993b
                          DCD      0x10187da7
                          DCD      0xe89c636e
                          DCD      0xdb3bbb7b
                          DCD      0xcd267809
                          DCD      0x6e5918f4
                          DCD      0xec9ab701
                          DCD      0x834f9aa8
                          DCD      0xe6956e65
                          DCD      0xaaffe67e
                          DCD      0x21bccf08
                          DCD      0xef15e8e6
                          DCD      0xbae79bd9
                          DCD      0x4a6f36ce
                          DCD      0xea9f09d4
                          DCD      0x29b07cd6
                          DCD      0x31a4b2af
                          DCD      0x2a3f2331
                          DCD      0xc6a59430
                          DCD      0x35a266c0
                          DCD      0x744ebc37
                          DCD      0xfc82caa6
                          DCD      0xe090d0b0
                          DCD      0x33a7d815
                          DCD      0xf104984a
                          DCD      0x41ecdaf7
                          DCD      0x7fcd500e
                          DCD      0x1791f62f
                          DCD      0x764dd68d
                          DCD      0x43efb04d
                          DCD      0xccaa4d54
                          DCD      0xe49604df
                          DCD      0x9ed1b5e3
                          DCD      0x4c6a881b
                          DCD      0xc12c1fb8
                          DCD      0x4665517f
                          DCD      0x9d5eea04
                          DCD      0x018c355d
                          DCD      0xfa877473
                          DCD      0xfb0b412e
                          DCD      0xb3671d5a
                          DCD      0x92dbd252
                          DCD      0xe9105633
                          DCD      0x6dd64713
                          DCD      0x9ad7618c
                          DCD      0x37a10c7a
                          DCD      0x59f8148e
                          DCD      0xeb133c89
                          DCD      0xcea927ee
                          DCD      0xb761c935
                          DCD      0xe11ce5ed
                          DCD      0x7a47b13c
                          DCD      0x9cd2df59
                          DCD      0x55f2733f
                          DCD      0x1814ce79
                          DCD      0x73c737bf
                          DCD      0x53f7cdea
                          DCD      0x5ffdaa5b
                          DCD      0xdf3d6f14
                          DCD      0x7844db86
                          DCD      0xcaaff381
                          DCD      0xb968c43e
                          DCD      0x3824342c
                          DCD      0xc2a3405f
                          DCD      0x161dc372
                          DCD      0xbce2250c
                          DCD      0x283c498b
                          DCD      0xff0d9541
                          DCD      0x39a80171
                          DCD      0x080cb3de
                          DCD      0xd8b4e49c
                          DCD      0x6456c190
                          DCD      0x7bcb8461
                          DCD      0xd532b670
                          DCD      0x486c5c74
                          DCD      0xd0b85742
                  Td1
                          DCD      0x5051f4a7
                          DCD      0x537e4165
                          DCD      0xc31a17a4
                          DCD      0x963a275e
                          DCD      0xcb3bab6b
                          DCD      0xf11f9d45
                          DCD      0xabacfa58
                          DCD      0x934be303
                          DCD      0x552030fa
                          DCD      0xf6ad766d
                          DCD      0x9188cc76
                          DCD      0x25f5024c
                          DCD      0xfc4fe5d7
                          DCD      0xd7c52acb
                          DCD      0x80263544
                          DCD      0x8fb562a3
                          DCD      0x49deb15a
                          DCD      0x6725ba1b
                          DCD      0x9845ea0e
                          DCD      0xe15dfec0
                          DCD      0x02c32f75
                          DCD      0x12814cf0
                          DCD      0xa38d4697
                          DCD      0xc66bd3f9
                          DCD      0xe7038f5f
                          DCD      0x9515929c
                          DCD      0xebbf6d7a
                          DCD      0xda955259
                          DCD      0x2dd4be83
                          DCD      0xd3587421
                          DCD      0x2949e069
                          DCD      0x448ec9c8
                          DCD      0x6a75c289
                          DCD      0x78f48e79
                          DCD      0x6b99583e
                          DCD      0xdd27b971
                          DCD      0xb6bee14f
                          DCD      0x17f088ad
                          DCD      0x66c920ac
                          DCD      0xb47dce3a
                          DCD      0x1863df4a
                          DCD      0x82e51a31
                          DCD      0x60975133
                          DCD      0x4562537f
                          DCD      0xe0b16477
                          DCD      0x84bb6bae
                          DCD      0x1cfe81a0
                          DCD      0x94f9082b
                          DCD      0x58704868
                          DCD      0x198f45fd
                          DCD      0x8794de6c
                          DCD      0xb7527bf8
                          DCD      0x23ab73d3
                          DCD      0xe2724b02
                          DCD      0x57e31f8f
                          DCD      0x2a6655ab
                          DCD      0x07b2eb28
                          DCD      0x032fb5c2
                          DCD      0x9a86c57b
                          DCD      0xa5d33708
                          DCD      0xf2302887
                          DCD      0xb223bfa5
                          DCD      0xba02036a
                          DCD      0x5ced1682
                          DCD      0x2b8acf1c
                          DCD      0x92a779b4
                          DCD      0xf0f307f2
                          DCD      0xa14e69e2
                          DCD      0xcd65daf4
                          DCD      0xd50605be
                          DCD      0x1fd13462
                          DCD      0x8ac4a6fe
                          DCD      0x9d342e53
                          DCD      0xa0a2f355
                          DCD      0x32058ae1
                          DCD      0x75a4f6eb
                          DCD      0x390b83ec
                          DCD      0xaa4060ef
                          DCD      0x065e719f
                          DCD      0x51bd6e10
                          DCD      0xf93e218a
                          DCD      0x3d96dd06
                          DCD      0xaedd3e05
                          DCD      0x464de6bd
                          DCD      0xb591548d
                          DCD      0x0571c45d
                          DCD      0x6f0406d4
                          DCD      0xff605015
                          DCD      0x241998fb
                          DCD      0x97d6bde9
                          DCD      0xcc894043
                          DCD      0x7767d99e
                          DCD      0xbdb0e842
                          DCD      0x8807898b
                          DCD      0x38e7195b
                          DCD      0xdb79c8ee
                          DCD      0x47a17c0a
                          DCD      0xe97c420f
                          DCD      0xc9f8841e
                          DCD      0x00000000
                          DCD      0x83098086
                          DCD      0x48322bed
                          DCD      0xac1e1170
                          DCD      0x4e6c5a72
                          DCD      0xfbfd0eff
                          DCD      0x560f8538
                          DCD      0x1e3daed5
                          DCD      0x27362d39
                          DCD      0x640a0fd9
                          DCD      0x21685ca6
                          DCD      0xd19b5b54
                          DCD      0x3a24362e
                          DCD      0xb10c0a67
                          DCD      0x0f9357e7
                          DCD      0xd2b4ee96
                          DCD      0x9e1b9b91
                          DCD      0x4f80c0c5
                          DCD      0xa261dc20
                          DCD      0x695a774b
                          DCD      0x161c121a
                          DCD      0x0ae293ba
                          DCD      0xe5c0a02a
                          DCD      0x433c22e0
                          DCD      0x1d121b17
                          DCD      0x0b0e090d
                          DCD      0xadf28bc7
                          DCD      0xb92db6a8
                          DCD      0xc8141ea9
                          DCD      0x8557f119
                          DCD      0x4caf7507
                          DCD      0xbbee99dd
                          DCD      0xfda37f60
                          DCD      0x9ff70126
                          DCD      0xbc5c72f5
                          DCD      0xc544663b
                          DCD      0x345bfb7e
                          DCD      0x768b4329
                          DCD      0xdccb23c6
                          DCD      0x68b6edfc
                          DCD      0x63b8e4f1
                          DCD      0xcad731dc
                          DCD      0x10426385
                          DCD      0x40139722
                          DCD      0x2084c611
                          DCD      0x7d854a24
                          DCD      0xf8d2bb3d
                          DCD      0x11aef932
                          DCD      0x6dc729a1
                          DCD      0x4b1d9e2f
                          DCD      0xf3dcb230
                          DCD      0xec0d8652
                          DCD      0xd077c1e3
                          DCD      0x6c2bb316
                          DCD      0x99a970b9
                          DCD      0xfa119448
                          DCD      0x2247e964
                          DCD      0xc4a8fc8c
                          DCD      0x1aa0f03f
                          DCD      0xd8567d2c
                          DCD      0xef223390
                          DCD      0xc787494e
                          DCD      0xc1d938d1
                          DCD      0xfe8ccaa2
                          DCD      0x3698d40b
                          DCD      0xcfa6f581
                          DCD      0x28a57ade
                          DCD      0x26dab78e
                          DCD      0xa43fadbf
                          DCD      0xe42c3a9d
                          DCD      0x0d507892
                          DCD      0x9b6a5fcc
                          DCD      0x62547e46
                          DCD      0xc2f68d13
                          DCD      0xe890d8b8
                          DCD      0x5e2e39f7
                          DCD      0xf582c3af
                          DCD      0xbe9f5d80
                          DCD      0x7c69d093
                          DCD      0xa96fd52d
                          DCD      0xb3cf2512
                          DCD      0x3bc8ac99
                          DCD      0xa710187d
                          DCD      0x6ee89c63
                          DCD      0x7bdb3bbb
                          DCD      0x09cd2678
                          DCD      0xf46e5918
                          DCD      0x01ec9ab7
                          DCD      0xa8834f9a
                          DCD      0x65e6956e
                          DCD      0x7eaaffe6
                          DCD      0x0821bccf
                          DCD      0xe6ef15e8
                          DCD      0xd9bae79b
                          DCD      0xce4a6f36
                          DCD      0xd4ea9f09
                          DCD      0xd629b07c
                          DCD      0xaf31a4b2
                          DCD      0x312a3f23
                          DCD      0x30c6a594
                          DCD      0xc035a266
                          DCD      0x37744ebc
                          DCD      0xa6fc82ca
                          DCD      0xb0e090d0
                          DCD      0x1533a7d8
                          DCD      0x4af10498
                          DCD      0xf741ecda
                          DCD      0x0e7fcd50
                          DCD      0x2f1791f6
                          DCD      0x8d764dd6
                          DCD      0x4d43efb0
                          DCD      0x54ccaa4d
                          DCD      0xdfe49604
                          DCD      0xe39ed1b5
                          DCD      0x1b4c6a88
                          DCD      0xb8c12c1f
                          DCD      0x7f466551
                          DCD      0x049d5eea
                          DCD      0x5d018c35
                          DCD      0x73fa8774
                          DCD      0x2efb0b41
                          DCD      0x5ab3671d
                          DCD      0x5292dbd2
                          DCD      0x33e91056
                          DCD      0x136dd647
                          DCD      0x8c9ad761
                          DCD      0x7a37a10c
                          DCD      0x8e59f814
                          DCD      0x89eb133c
                          DCD      0xeecea927
                          DCD      0x35b761c9
                          DCD      0xede11ce5
                          DCD      0x3c7a47b1
                          DCD      0x599cd2df
                          DCD      0x3f55f273
                          DCD      0x791814ce
                          DCD      0xbf73c737
                          DCD      0xea53f7cd
                          DCD      0x5b5ffdaa
                          DCD      0x14df3d6f
                          DCD      0x867844db
                          DCD      0x81caaff3
                          DCD      0x3eb968c4
                          DCD      0x2c382434
                          DCD      0x5fc2a340
                          DCD      0x72161dc3
                          DCD      0x0cbce225
                          DCD      0x8b283c49
                          DCD      0x41ff0d95
                          DCD      0x7139a801
                          DCD      0xde080cb3
                          DCD      0x9cd8b4e4
                          DCD      0x906456c1
                          DCD      0x617bcb84
                          DCD      0x70d532b6
                          DCD      0x74486c5c
                          DCD      0x42d0b857
                  Td2
                          DCD      0xa75051f4
                          DCD      0x65537e41
                          DCD      0xa4c31a17
                          DCD      0x5e963a27
                          DCD      0x6bcb3bab
                          DCD      0x45f11f9d
                          DCD      0x58abacfa
                          DCD      0x03934be3
                          DCD      0xfa552030
                          DCD      0x6df6ad76
                          DCD      0x769188cc
                          DCD      0x4c25f502
                          DCD      0xd7fc4fe5
                          DCD      0xcbd7c52a
                          DCD      0x44802635
                          DCD      0xa38fb562
                          DCD      0x5a49deb1
                          DCD      0x1b6725ba
                          DCD      0x0e9845ea
                          DCD      0xc0e15dfe
                          DCD      0x7502c32f
                          DCD      0xf012814c
                          DCD      0x97a38d46
                          DCD      0xf9c66bd3
                          DCD      0x5fe7038f
                          DCD      0x9c951592
                          DCD      0x7aebbf6d
                          DCD      0x59da9552
                          DCD      0x832dd4be
                          DCD      0x21d35874
                          DCD      0x692949e0
                          DCD      0xc8448ec9
                          DCD      0x896a75c2
                          DCD      0x7978f48e
                          DCD      0x3e6b9958
                          DCD      0x71dd27b9
                          DCD      0x4fb6bee1
                          DCD      0xad17f088
                          DCD      0xac66c920
                          DCD      0x3ab47dce
                          DCD      0x4a1863df
                          DCD      0x3182e51a
                          DCD      0x33609751
                          DCD      0x7f456253
                          DCD      0x77e0b164
                          DCD      0xae84bb6b
                          DCD      0xa01cfe81
                          DCD      0x2b94f908
                          DCD      0x68587048
                          DCD      0xfd198f45
                          DCD      0x6c8794de
                          DCD      0xf8b7527b
                          DCD      0xd323ab73
                          DCD      0x02e2724b
                          DCD      0x8f57e31f
                          DCD      0xab2a6655
                          DCD      0x2807b2eb
                          DCD      0xc2032fb5
                          DCD      0x7b9a86c5
                          DCD      0x08a5d337
                          DCD      0x87f23028
                          DCD      0xa5b223bf
                          DCD      0x6aba0203
                          DCD      0x825ced16
                          DCD      0x1c2b8acf
                          DCD      0xb492a779
                          DCD      0xf2f0f307
                          DCD      0xe2a14e69
                          DCD      0xf4cd65da
                          DCD      0xbed50605
                          DCD      0x621fd134
                          DCD      0xfe8ac4a6
                          DCD      0x539d342e
                          DCD      0x55a0a2f3
                          DCD      0xe132058a
                          DCD      0xeb75a4f6
                          DCD      0xec390b83
                          DCD      0xefaa4060
                          DCD      0x9f065e71
                          DCD      0x1051bd6e
                          DCD      0x8af93e21
                          DCD      0x063d96dd
                          DCD      0x05aedd3e
                          DCD      0xbd464de6
                          DCD      0x8db59154
                          DCD      0x5d0571c4
                          DCD      0xd46f0406
                          DCD      0x15ff6050
                          DCD      0xfb241998
                          DCD      0xe997d6bd
                          DCD      0x43cc8940
                          DCD      0x9e7767d9
                          DCD      0x42bdb0e8
                          DCD      0x8b880789
                          DCD      0x5b38e719
                          DCD      0xeedb79c8
                          DCD      0x0a47a17c
                          DCD      0x0fe97c42
                          DCD      0x1ec9f884
                          DCD      0x00000000
                          DCD      0x86830980
                          DCD      0xed48322b
                          DCD      0x70ac1e11
                          DCD      0x724e6c5a
                          DCD      0xfffbfd0e
                          DCD      0x38560f85
                          DCD      0xd51e3dae
                          DCD      0x3927362d
                          DCD      0xd9640a0f
                          DCD      0xa621685c
                          DCD      0x54d19b5b
                          DCD      0x2e3a2436
                          DCD      0x67b10c0a
                          DCD      0xe70f9357
                          DCD      0x96d2b4ee
                          DCD      0x919e1b9b
                          DCD      0xc54f80c0
                          DCD      0x20a261dc
                          DCD      0x4b695a77
                          DCD      0x1a161c12
                          DCD      0xba0ae293
                          DCD      0x2ae5c0a0
                          DCD      0xe0433c22
                          DCD      0x171d121b
                          DCD      0x0d0b0e09
                          DCD      0xc7adf28b
                          DCD      0xa8b92db6
                          DCD      0xa9c8141e
                          DCD      0x198557f1
                          DCD      0x074caf75
                          DCD      0xddbbee99
                          DCD      0x60fda37f
                          DCD      0x269ff701
                          DCD      0xf5bc5c72
                          DCD      0x3bc54466
                          DCD      0x7e345bfb
                          DCD      0x29768b43
                          DCD      0xc6dccb23
                          DCD      0xfc68b6ed
                          DCD      0xf163b8e4
                          DCD      0xdccad731
                          DCD      0x85104263
                          DCD      0x22401397
                          DCD      0x112084c6
                          DCD      0x247d854a
                          DCD      0x3df8d2bb
                          DCD      0x3211aef9
                          DCD      0xa16dc729
                          DCD      0x2f4b1d9e
                          DCD      0x30f3dcb2
                          DCD      0x52ec0d86
                          DCD      0xe3d077c1
                          DCD      0x166c2bb3
                          DCD      0xb999a970
                          DCD      0x48fa1194
                          DCD      0x642247e9
                          DCD      0x8cc4a8fc
                          DCD      0x3f1aa0f0
                          DCD      0x2cd8567d
                          DCD      0x90ef2233
                          DCD      0x4ec78749
                          DCD      0xd1c1d938
                          DCD      0xa2fe8cca
                          DCD      0x0b3698d4
                          DCD      0x81cfa6f5
                          DCD      0xde28a57a
                          DCD      0x8e26dab7
                          DCD      0xbfa43fad
                          DCD      0x9de42c3a
                          DCD      0x920d5078
                          DCD      0xcc9b6a5f
                          DCD      0x4662547e
                          DCD      0x13c2f68d
                          DCD      0xb8e890d8
                          DCD      0xf75e2e39
                          DCD      0xaff582c3
                          DCD      0x80be9f5d
                          DCD      0x937c69d0
                          DCD      0x2da96fd5
                          DCD      0x12b3cf25
                          DCD      0x993bc8ac
                          DCD      0x7da71018
                          DCD      0x636ee89c
                          DCD      0xbb7bdb3b
                          DCD      0x7809cd26
                          DCD      0x18f46e59
                          DCD      0xb701ec9a
                          DCD      0x9aa8834f
                          DCD      0x6e65e695
                          DCD      0xe67eaaff
                          DCD      0xcf0821bc
                          DCD      0xe8e6ef15
                          DCD      0x9bd9bae7
                          DCD      0x36ce4a6f
                          DCD      0x09d4ea9f
                          DCD      0x7cd629b0
                          DCD      0xb2af31a4
                          DCD      0x23312a3f
                          DCD      0x9430c6a5
                          DCD      0x66c035a2
                          DCD      0xbc37744e
                          DCD      0xcaa6fc82
                          DCD      0xd0b0e090
                          DCD      0xd81533a7
                          DCD      0x984af104
                          DCD      0xdaf741ec
                          DCD      0x500e7fcd
                          DCD      0xf62f1791
                          DCD      0xd68d764d
                          DCD      0xb04d43ef
                          DCD      0x4d54ccaa
                          DCD      0x04dfe496
                          DCD      0xb5e39ed1
                          DCD      0x881b4c6a
                          DCD      0x1fb8c12c
                          DCD      0x517f4665
                          DCD      0xea049d5e
                          DCD      0x355d018c
                          DCD      0x7473fa87
                          DCD      0x412efb0b
                          DCD      0x1d5ab367
                          DCD      0xd25292db
                          DCD      0x5633e910
                          DCD      0x47136dd6
                          DCD      0x618c9ad7
                          DCD      0x0c7a37a1
                          DCD      0x148e59f8
                          DCD      0x3c89eb13
                          DCD      0x27eecea9
                          DCD      0xc935b761
                          DCD      0xe5ede11c
                          DCD      0xb13c7a47
                          DCD      0xdf599cd2
                          DCD      0x733f55f2
                          DCD      0xce791814
                          DCD      0x37bf73c7
                          DCD      0xcdea53f7
                          DCD      0xaa5b5ffd
                          DCD      0x6f14df3d
                          DCD      0xdb867844
                          DCD      0xf381caaf
                          DCD      0xc43eb968
                          DCD      0x342c3824
                          DCD      0x405fc2a3
                          DCD      0xc372161d
                          DCD      0x250cbce2
                          DCD      0x498b283c
                          DCD      0x9541ff0d
                          DCD      0x017139a8
                          DCD      0xb3de080c
                          DCD      0xe49cd8b4
                          DCD      0xc1906456
                          DCD      0x84617bcb
                          DCD      0xb670d532
                          DCD      0x5c74486c
                          DCD      0x5742d0b8
                  Td3
                          DCD      0xf4a75051
                          DCD      0x4165537e
                          DCD      0x17a4c31a
                          DCD      0x275e963a
                          DCD      0xab6bcb3b
                          DCD      0x9d45f11f
                          DCD      0xfa58abac
                          DCD      0xe303934b
                          DCD      0x30fa5520
                          DCD      0x766df6ad
                          DCD      0xcc769188
                          DCD      0x024c25f5
                          DCD      0xe5d7fc4f
                          DCD      0x2acbd7c5
                          DCD      0x35448026
                          DCD      0x62a38fb5
                          DCD      0xb15a49de
                          DCD      0xba1b6725
                          DCD      0xea0e9845
                          DCD      0xfec0e15d
                          DCD      0x2f7502c3
                          DCD      0x4cf01281
                          DCD      0x4697a38d
                          DCD      0xd3f9c66b
                          DCD      0x8f5fe703
                          DCD      0x929c9515
                          DCD      0x6d7aebbf
                          DCD      0x5259da95
                          DCD      0xbe832dd4
                          DCD      0x7421d358
                          DCD      0xe0692949
                          DCD      0xc9c8448e
                          DCD      0xc2896a75
                          DCD      0x8e7978f4
                          DCD      0x583e6b99
                          DCD      0xb971dd27
                          DCD      0xe14fb6be
                          DCD      0x88ad17f0
                          DCD      0x20ac66c9
                          DCD      0xce3ab47d
                          DCD      0xdf4a1863
                          DCD      0x1a3182e5
                          DCD      0x51336097
                          DCD      0x537f4562
                          DCD      0x6477e0b1
                          DCD      0x6bae84bb
                          DCD      0x81a01cfe
                          DCD      0x082b94f9
                          DCD      0x48685870
                          DCD      0x45fd198f
                          DCD      0xde6c8794
                          DCD      0x7bf8b752
                          DCD      0x73d323ab
                          DCD      0x4b02e272
                          DCD      0x1f8f57e3
                          DCD      0x55ab2a66
                          DCD      0xeb2807b2
                          DCD      0xb5c2032f
                          DCD      0xc57b9a86
                          DCD      0x3708a5d3
                          DCD      0x2887f230
                          DCD      0xbfa5b223
                          DCD      0x036aba02
                          DCD      0x16825ced
                          DCD      0xcf1c2b8a
                          DCD      0x79b492a7
                          DCD      0x07f2f0f3
                          DCD      0x69e2a14e
                          DCD      0xdaf4cd65
                          DCD      0x05bed506
                          DCD      0x34621fd1
                          DCD      0xa6fe8ac4
                          DCD      0x2e539d34
                          DCD      0xf355a0a2
                          DCD      0x8ae13205
                          DCD      0xf6eb75a4
                          DCD      0x83ec390b
                          DCD      0x60efaa40
                          DCD      0x719f065e
                          DCD      0x6e1051bd
                          DCD      0x218af93e
                          DCD      0xdd063d96
                          DCD      0x3e05aedd
                          DCD      0xe6bd464d
                          DCD      0x548db591
                          DCD      0xc45d0571
                          DCD      0x06d46f04
                          DCD      0x5015ff60
                          DCD      0x98fb2419
                          DCD      0xbde997d6
                          DCD      0x4043cc89
                          DCD      0xd99e7767
                          DCD      0xe842bdb0
                          DCD      0x898b8807
                          DCD      0x195b38e7
                          DCD      0xc8eedb79
                          DCD      0x7c0a47a1
                          DCD      0x420fe97c
                          DCD      0x841ec9f8
                          DCD      0x00000000
                          DCD      0x80868309
                          DCD      0x2bed4832
                          DCD      0x1170ac1e
                          DCD      0x5a724e6c
                          DCD      0x0efffbfd
                          DCD      0x8538560f
                          DCD      0xaed51e3d
                          DCD      0x2d392736
                          DCD      0x0fd9640a
                          DCD      0x5ca62168
                          DCD      0x5b54d19b
                          DCD      0x362e3a24
                          DCD      0x0a67b10c
                          DCD      0x57e70f93
                          DCD      0xee96d2b4
                          DCD      0x9b919e1b
                          DCD      0xc0c54f80
                          DCD      0xdc20a261
                          DCD      0x774b695a
                          DCD      0x121a161c
                          DCD      0x93ba0ae2
                          DCD      0xa02ae5c0
                          DCD      0x22e0433c
                          DCD      0x1b171d12
                          DCD      0x090d0b0e
                          DCD      0x8bc7adf2
                          DCD      0xb6a8b92d
                          DCD      0x1ea9c814
                          DCD      0xf1198557
                          DCD      0x75074caf
                          DCD      0x99ddbbee
                          DCD      0x7f60fda3
                          DCD      0x01269ff7
                          DCD      0x72f5bc5c
                          DCD      0x663bc544
                          DCD      0xfb7e345b
                          DCD      0x4329768b
                          DCD      0x23c6dccb
                          DCD      0xedfc68b6
                          DCD      0xe4f163b8
                          DCD      0x31dccad7
                          DCD      0x63851042
                          DCD      0x97224013
                          DCD      0xc6112084
                          DCD      0x4a247d85
                          DCD      0xbb3df8d2
                          DCD      0xf93211ae
                          DCD      0x29a16dc7
                          DCD      0x9e2f4b1d
                          DCD      0xb230f3dc
                          DCD      0x8652ec0d
                          DCD      0xc1e3d077
                          DCD      0xb3166c2b
                          DCD      0x70b999a9
                          DCD      0x9448fa11
                          DCD      0xe9642247
                          DCD      0xfc8cc4a8
                          DCD      0xf03f1aa0
                          DCD      0x7d2cd856
                          DCD      0x3390ef22
                          DCD      0x494ec787
                          DCD      0x38d1c1d9
                          DCD      0xcaa2fe8c
                          DCD      0xd40b3698
                          DCD      0xf581cfa6
                          DCD      0x7ade28a5
                          DCD      0xb78e26da
                          DCD      0xadbfa43f
                          DCD      0x3a9de42c
                          DCD      0x78920d50
                          DCD      0x5fcc9b6a
                          DCD      0x7e466254
                          DCD      0x8d13c2f6
                          DCD      0xd8b8e890
                          DCD      0x39f75e2e
                          DCD      0xc3aff582
                          DCD      0x5d80be9f
                          DCD      0xd0937c69
                          DCD      0xd52da96f
                          DCD      0x2512b3cf
                          DCD      0xac993bc8
                          DCD      0x187da710
                          DCD      0x9c636ee8
                          DCD      0x3bbb7bdb
                          DCD      0x267809cd
                          DCD      0x5918f46e
                          DCD      0x9ab701ec
                          DCD      0x4f9aa883
                          DCD      0x956e65e6
                          DCD      0xffe67eaa
                          DCD      0xbccf0821
                          DCD      0x15e8e6ef
                          DCD      0xe79bd9ba
                          DCD      0x6f36ce4a
                          DCD      0x9f09d4ea
                          DCD      0xb07cd629
                          DCD      0xa4b2af31
                          DCD      0x3f23312a
                          DCD      0xa59430c6
                          DCD      0xa266c035
                          DCD      0x4ebc3774
                          DCD      0x82caa6fc
                          DCD      0x90d0b0e0
                          DCD      0xa7d81533
                          DCD      0x04984af1
                          DCD      0xecdaf741
                          DCD      0xcd500e7f
                          DCD      0x91f62f17
                          DCD      0x4dd68d76
                          DCD      0xefb04d43
                          DCD      0xaa4d54cc
                          DCD      0x9604dfe4
                          DCD      0xd1b5e39e
                          DCD      0x6a881b4c
                          DCD      0x2c1fb8c1
                          DCD      0x65517f46
                          DCD      0x5eea049d
                          DCD      0x8c355d01
                          DCD      0x877473fa
                          DCD      0x0b412efb
                          DCD      0x671d5ab3
                          DCD      0xdbd25292
                          DCD      0x105633e9
                          DCD      0xd647136d
                          DCD      0xd7618c9a
                          DCD      0xa10c7a37
                          DCD      0xf8148e59
                          DCD      0x133c89eb
                          DCD      0xa927eece
                          DCD      0x61c935b7
                          DCD      0x1ce5ede1
                          DCD      0x47b13c7a
                          DCD      0xd2df599c
                          DCD      0xf2733f55
                          DCD      0x14ce7918
                          DCD      0xc737bf73
                          DCD      0xf7cdea53
                          DCD      0xfdaa5b5f
                          DCD      0x3d6f14df
                          DCD      0x44db8678
                          DCD      0xaff381ca
                          DCD      0x68c43eb9
                          DCD      0x24342c38
                          DCD      0xa3405fc2
                          DCD      0x1dc37216
                          DCD      0xe2250cbc
                          DCD      0x3c498b28
                          DCD      0x0d9541ff
                          DCD      0xa8017139
                          DCD      0x0cb3de08
                          DCD      0xb4e49cd8
                          DCD      0x56c19064
                          DCD      0xcb84617b
                          DCD      0x32b670d5
                          DCD      0x6c5c7448
                          DCD      0xb85742d0
                  Td4
                          DCD      0x52525252
                          DCD      0x09090909
                          DCD      0x6a6a6a6a
                          DCD      0xd5d5d5d5
                          DCD      0x30303030
                          DCD      0x36363636
                          DCD      0xa5a5a5a5
                          DCD      0x38383838
                          DCD      0xbfbfbfbf
                          DCD      0x40404040
                          DCD      0xa3a3a3a3
                          DCD      0x9e9e9e9e
                          DCD      0x81818181
                          DCD      0xf3f3f3f3
                          DCD      0xd7d7d7d7
                          DCD      0xfbfbfbfb
                          DCD      0x7c7c7c7c
                          DCD      0xe3e3e3e3
                          DCD      0x39393939
                          DCD      0x82828282
                          DCD      0x9b9b9b9b
                          DCD      0x2f2f2f2f
                          DCD      0xffffffff
                          DCD      0x87878787
                          DCD      0x34343434
                          DCD      0x8e8e8e8e
                          DCD      0x43434343
                          DCD      0x44444444
                          DCD      0xc4c4c4c4
                          DCD      0xdededede
                          DCD      0xe9e9e9e9
                          DCD      0xcbcbcbcb
                          DCD      0x54545454
                          DCD      0x7b7b7b7b
                          DCD      0x94949494
                          DCD      0x32323232
                          DCD      0xa6a6a6a6
                          DCD      0xc2c2c2c2
                          DCD      0x23232323
                          DCD      0x3d3d3d3d
                          DCD      0xeeeeeeee
                          DCD      0x4c4c4c4c
                          DCD      0x95959595
                          DCD      0x0b0b0b0b
                          DCD      0x42424242
                          DCD      0xfafafafa
                          DCD      0xc3c3c3c3
                          DCD      0x4e4e4e4e
                          DCD      0x08080808
                          DCD      0x2e2e2e2e
                          DCD      0xa1a1a1a1
                          DCD      0x66666666
                          DCD      0x28282828
                          DCD      0xd9d9d9d9
                          DCD      0x24242424
                          DCD      0xb2b2b2b2
                          DCD      0x76767676
                          DCD      0x5b5b5b5b
                          DCD      0xa2a2a2a2
                          DCD      0x49494949
                          DCD      0x6d6d6d6d
                          DCD      0x8b8b8b8b
                          DCD      0xd1d1d1d1
                          DCD      0x25252525
                          DCD      0x72727272
                          DCD      0xf8f8f8f8
                          DCD      0xf6f6f6f6
                          DCD      0x64646464
                          DCD      0x86868686
                          DCD      0x68686868
                          DCD      0x98989898
                          DCD      0x16161616
                          DCD      0xd4d4d4d4
                          DCD      0xa4a4a4a4
                          DCD      0x5c5c5c5c
                          DCD      0xcccccccc
                          DCD      0x5d5d5d5d
                          DCD      0x65656565
                          DCD      0xb6b6b6b6
                          DCD      0x92929292
                          DCD      0x6c6c6c6c
                          DCD      0x70707070
                          DCD      0x48484848
                          DCD      0x50505050
                          DCD      0xfdfdfdfd
                          DCD      0xedededed
                          DCD      0xb9b9b9b9
                          DCD      0xdadadada
                          DCD      0x5e5e5e5e
                          DCD      0x15151515
                          DCD      0x46464646
                          DCD      0x57575757
                          DCD      0xa7a7a7a7
                          DCD      0x8d8d8d8d
                          DCD      0x9d9d9d9d
                          DCD      0x84848484
                          DCD      0x90909090
                          DCD      0xd8d8d8d8
                          DCD      0xabababab
                          DCD      0x00000000
                          DCD      0x8c8c8c8c
                          DCD      0xbcbcbcbc
                          DCD      0xd3d3d3d3
                          DCD      0x0a0a0a0a
                          DCD      0xf7f7f7f7
                          DCD      0xe4e4e4e4
                          DCD      0x58585858
                          DCD      0x05050505
                          DCD      0xb8b8b8b8
                          DCD      0xb3b3b3b3
                          DCD      0x45454545
                          DCD      0x06060606
                          DCD      0xd0d0d0d0
                          DCD      0x2c2c2c2c
                          DCD      0x1e1e1e1e
                          DCD      0x8f8f8f8f
                          DCD      0xcacacaca
                          DCD      0x3f3f3f3f
                          DCD      0x0f0f0f0f
                          DCD      0x02020202
                          DCD      0xc1c1c1c1
                          DCD      0xafafafaf
                          DCD      0xbdbdbdbd
                          DCD      0x03030303
                          DCD      0x01010101
                          DCD      0x13131313
                          DCD      0x8a8a8a8a
                          DCD      0x6b6b6b6b
                          DCD      0x3a3a3a3a
                          DCD      0x91919191
                          DCD      0x11111111
                          DCD      0x41414141
                          DCD      0x4f4f4f4f
                          DCD      0x67676767
                          DCD      0xdcdcdcdc
                          DCD      0xeaeaeaea
                          DCD      0x97979797
                          DCD      0xf2f2f2f2
                          DCD      0xcfcfcfcf
                          DCD      0xcececece
                          DCD      0xf0f0f0f0
                          DCD      0xb4b4b4b4
                          DCD      0xe6e6e6e6
                          DCD      0x73737373
                          DCD      0x96969696
                          DCD      0xacacacac
                          DCD      0x74747474
                          DCD      0x22222222
                          DCD      0xe7e7e7e7
                          DCD      0xadadadad
                          DCD      0x35353535
                          DCD      0x85858585
                          DCD      0xe2e2e2e2
                          DCD      0xf9f9f9f9
                          DCD      0x37373737
                          DCD      0xe8e8e8e8
                          DCD      0x1c1c1c1c
                          DCD      0x75757575
                          DCD      0xdfdfdfdf
                          DCD      0x6e6e6e6e
                          DCD      0x47474747
                          DCD      0xf1f1f1f1
                          DCD      0x1a1a1a1a
                          DCD      0x71717171
                          DCD      0x1d1d1d1d
                          DCD      0x29292929
                          DCD      0xc5c5c5c5
                          DCD      0x89898989
                          DCD      0x6f6f6f6f
                          DCD      0xb7b7b7b7
                          DCD      0x62626262
                          DCD      0x0e0e0e0e
                          DCD      0xaaaaaaaa
                          DCD      0x18181818
                          DCD      0xbebebebe
                          DCD      0x1b1b1b1b
                          DCD      0xfcfcfcfc
                          DCD      0x56565656
                          DCD      0x3e3e3e3e
                          DCD      0x4b4b4b4b
                          DCD      0xc6c6c6c6
                          DCD      0xd2d2d2d2
                          DCD      0x79797979
                          DCD      0x20202020
                          DCD      0x9a9a9a9a
                          DCD      0xdbdbdbdb
                          DCD      0xc0c0c0c0
                          DCD      0xfefefefe
                          DCD      0x78787878
                          DCD      0xcdcdcdcd
                          DCD      0x5a5a5a5a
                          DCD      0xf4f4f4f4
                          DCD      0x1f1f1f1f
                          DCD      0xdddddddd
                          DCD      0xa8a8a8a8
                          DCD      0x33333333
                          DCD      0x88888888
                          DCD      0x07070707
                          DCD      0xc7c7c7c7
                          DCD      0x31313131
                          DCD      0xb1b1b1b1
                          DCD      0x12121212
                          DCD      0x10101010
                          DCD      0x59595959
                          DCD      0x27272727
                          DCD      0x80808080
                          DCD      0xecececec
                          DCD      0x5f5f5f5f
                          DCD      0x60606060
                          DCD      0x51515151
                          DCD      0x7f7f7f7f
                          DCD      0xa9a9a9a9
                          DCD      0x19191919
                          DCD      0xb5b5b5b5
                          DCD      0x4a4a4a4a
                          DCD      0x0d0d0d0d
                          DCD      0x2d2d2d2d
                          DCD      0xe5e5e5e5
                          DCD      0x7a7a7a7a
                          DCD      0x9f9f9f9f
                          DCD      0x93939393
                          DCD      0xc9c9c9c9
                          DCD      0x9c9c9c9c
                          DCD      0xefefefef
                          DCD      0xa0a0a0a0
                          DCD      0xe0e0e0e0
                          DCD      0x3b3b3b3b
                          DCD      0x4d4d4d4d
                          DCD      0xaeaeaeae
                          DCD      0x2a2a2a2a
                          DCD      0xf5f5f5f5
                          DCD      0xb0b0b0b0
                          DCD      0xc8c8c8c8
                          DCD      0xebebebeb
                          DCD      0xbbbbbbbb
                          DCD      0x3c3c3c3c
                          DCD      0x83838383
                          DCD      0x53535353
                          DCD      0x99999999
                          DCD      0x61616161
                          DCD      0x17171717
                          DCD      0x2b2b2b2b
                          DCD      0x04040404
                          DCD      0x7e7e7e7e
                          DCD      0xbabababa
                          DCD      0x77777777
                          DCD      0xd6d6d6d6
                          DCD      0x26262626
                          DCD      0xe1e1e1e1
                          DCD      0x69696969
                          DCD      0x14141414
                          DCD      0x63636363
                          DCD      0x55555555
                          DCD      0x21212121
                          DCD      0x0c0c0c0c
                          DCD      0x7d7d7d7d
                  rcon
                          DCD      0x01000000
                          DCD      0x02000000
                          DCD      0x04000000
                          DCD      0x08000000
                          DCD      0x10000000
                          DCD      0x20000000
                          DCD      0x40000000
                          DCD      0x80000000
                          DCD      0x1b000000
                          DCD      0x36000000
